 win32_main

 Timestamp is 5e5d41b0 (Mon Mar  2 10:26:08 2020)

 Preferred load address is 00400000

 Start         Length     Name                   Class
 0001:00000000 00001f80H .text$di                CODE
 0001:00001f80 00036b40H .text$mn                CODE
 0001:00038ac0 000014f0H .text$x                 CODE
 0001:00039fb0 00001037H .text$yd                CODE
 0002:00000000 00000104H .CRT$XCA                DATA
 0002:00000104 00000104H .CRT$XCAA               DATA
 0002:00000208 0000010cH .CRT$XCU                DATA
 0002:00000314 00000104H .CRT$XCZ                DATA
 0002:00000418 00000104H .CRT$XIA                DATA
 0002:0000051c 00000104H .CRT$XIAA               DATA
 0002:00000620 00000104H .CRT$XIAC               DATA
 0002:00000724 00000104H .CRT$XIZ                DATA
 0002:00000828 00000104H .CRT$XPA                DATA
 0002:0000092c 00000104H .CRT$XPZ                DATA
 0002:00000a30 00000104H .CRT$XTA                DATA
 0002:00000b34 0000010cH .CRT$XTZ                DATA
 0002:00000c40 00027260H .rdata                  DATA
 0002:00027ea0 00000280H .rdata$r                DATA
 0002:00028120 00000178H .rdata$sxdata           DATA
 0002:00028298 00000184H .rdata$zzzdbg           DATA
 0002:0002841c 00000104H .rtc$IAA                DATA
 0002:00028520 00000104H .rtc$IZZ                DATA
 0002:00028624 00000104H .rtc$TAA                DATA
 0002:00028728 00000108H .rtc$TZZ                DATA
 0002:00028830 000007daH .xdata$x                DATA
 0002:0002900a 00000000H .edata                  DATA
 0003:00000000 00002f98H .data                   DATA
 0003:00002f98 00000198H .data$r                 DATA
 0003:00003130 0000307cH .bss                    DATA
 0004:00000000 00000698H .idata$5                DATA
 0004:00000698 00000118H .idata$2                DATA
 0004:000007b0 00000014H .idata$3                DATA
 0004:000007c4 00000698H .idata$4                DATA
 0004:00000e5c 000017c1H .idata$6                DATA
 0005:00000000 00000175H .gfids$y                DATA
 0006:00000000 00000104H .00cfg                  DATA

  Address         Publics by Value              Rva+Base       Lib:Object

 0000:00000000       ___guard_longjmp_count     00000000     <absolute>
 0000:00000000       ___guard_longjmp_table     00000000     <absolute>
 0000:00000000       ___guard_fids_count        00000000     <absolute>
 0000:00000000       ___dynamic_value_reloc_table 00000000     <absolute>
 0000:00000000       ___guard_iat_count         00000000     <absolute>
 0000:00000000       ___guard_iat_table         00000000     <absolute>
 0000:00000000       ___guard_fids_table        00000000     <absolute>
 0000:00000019       ___safe_se_handler_count   00000019     <absolute>
 0000:00000100       ___guard_flags             00000100     <absolute>
 0000:00000000       ___ImageBase               00400000     <linker-defined>
 0001:00001f80       ?debug_printMsg@@YAXV?$basic_string@DU?$char_traits@D@std@@V?$allocator@D@2@@std@@@Z 00402f80 f   win32_main.obj
 0001:00001ff0       ?debug_printFloat@@YAXM@Z  00402ff0 f   win32_main.obj
 0001:00002040       ?Homogenize@@YA?AUMat3@@UMat2@@@Z 00403040 f   win32_main.obj
 0001:000020d0       _stbi_load_from_memory     004030d0 f   win32_main.obj
 0001:00002130       _stbi_load_from_callbacks  00403130 f   win32_main.obj
 0001:00002190       _stbi_load                 00403190 f   win32_main.obj
 0001:00002210       _stbi_load_from_file       00403210 f   win32_main.obj
 0001:00002290       _stbi_load_gif_from_memory 00403290 f   win32_main.obj
 0001:00002330       _stbi_load_16_from_memory  00403330 f   win32_main.obj
 0001:00002390       _stbi_load_16_from_callbacks 00403390 f   win32_main.obj
 0001:000023f0       _stbi_load_16              004033f0 f   win32_main.obj
 0001:00002470       _stbi_load_from_file_16    00403470 f   win32_main.obj
 0001:000024f0       _stbi_loadf_from_memory    004034f0 f   win32_main.obj
 0001:00002550       _stbi_loadf_from_callbacks 00403550 f   win32_main.obj
 0001:000025b0       _stbi_loadf                004035b0 f   win32_main.obj
 0001:00002630       _stbi_loadf_from_file      00403630 f   win32_main.obj
 0001:00002690       _stbi_hdr_to_ldr_gamma     00403690 f   win32_main.obj
 0001:000026b0       _stbi_hdr_to_ldr_scale     004036b0 f   win32_main.obj
 0001:000026d0       _stbi_ldr_to_hdr_gamma     004036d0 f   win32_main.obj
 0001:000026f0       _stbi_ldr_to_hdr_scale     004036f0 f   win32_main.obj
 0001:00002710       _stbi_is_hdr_from_callbacks 00403710 f   win32_main.obj
 0001:00002760       _stbi_is_hdr_from_memory   00403760 f   win32_main.obj
 0001:000027b0       _stbi_is_hdr               004037b0 f   win32_main.obj
 0001:00002800       _stbi_is_hdr_from_file     00403800 f   win32_main.obj
 0001:00002880       _stbi_failure_reason       00403880 f   win32_main.obj
 0001:00002890       _stbi_image_free           00403890 f   win32_main.obj
 0001:000028b0       _stbi_info_from_memory     004038b0 f   win32_main.obj
 0001:00002910       _stbi_info_from_callbacks  00403910 f   win32_main.obj
 0001:00002970       _stbi_is_16_bit_from_memory 00403970 f   win32_main.obj
 0001:000029c0       _stbi_is_16_bit_from_callbacks 004039c0 f   win32_main.obj
 0001:00002a10       _stbi_info                 00403a10 f   win32_main.obj
 0001:00002a70       _stbi_info_from_file       00403a70 f   win32_main.obj
 0001:00002b00       _stbi_is_16_bit            00403b00 f   win32_main.obj
 0001:00002b60       _stbi_is_16_bit_from_file  00403b60 f   win32_main.obj
 0001:00002be0       _stbi_set_unpremultiply_on_load 00403be0 f   win32_main.obj
 0001:00002bf0       _stbi_convert_iphone_png_to_rgb 00403bf0 f   win32_main.obj
 0001:00002c00       _stbi_set_flip_vertically_on_load 00403c00 f   win32_main.obj
 0001:00002c10       _stbi_zlib_decode_malloc_guesssize 00403c10 f   win32_main.obj
 0001:00002cc0       _stbi_zlib_decode_malloc_guesssize_headerflag 00403cc0 f   win32_main.obj
 0001:00002d70       _stbi_zlib_decode_malloc   00403d70 f   win32_main.obj
 0001:00002d90       _stbi_zlib_decode_buffer   00403d90 f   win32_main.obj
 0001:00002e00       _stbi_zlib_decode_noheader_malloc 00403e00 f   win32_main.obj
 0001:00002eb0       _stbi_zlib_decode_noheader_buffer 00403eb0 f   win32_main.obj
 0001:00017490       ?buildAndLinkShaders@@YAIV?$basic_string@DU?$char_traits@D@std@@V?$allocator@D@2@@std@@0@Z 00418490 f   win32_main.obj
 0001:00017710       ?window_framebufferSizeCallback@@YAXPAUGLFWwindow@@HH@Z 00418710 f   win32_main.obj
 0001:00017730       ?key_callback@@YAXPAUGLFWwindow@@HHHH@Z 00418730 f   win32_main.obj
 0001:00017780       _main                      00418780 f   win32_main.obj
 0001:0001d8d0       ??$?0$$V@?$_Compressed_pair@U?$_Wrap_alloc@V?$allocator@D@std@@@std@@V?$_String_val@U?$_Simple_types@D@std@@@2@$00@std@@QAE@U_Zero_then_variadic_args_t@1@@Z 0041e8d0 f i win32_main.obj
 0001:0001d900       ??$?0$$V@?$_Compressed_pair@U?$_Wrap_alloc@V?$allocator@D@std@@@std@@V?$_Vector_val@U?$_Simple_types@D@std@@@2@$00@std@@QAE@U_Zero_then_variadic_args_t@1@@Z 0041e900 f i win32_main.obj
 0001:0001d930       ??$?0ABV?$allocator@D@std@@$$V@?$_Compressed_pair@U?$_Wrap_alloc@V?$allocator@D@std@@@std@@V?$_String_val@U?$_Simple_types@D@std@@@2@$00@std@@QAE@U_One_then_variadic_args_t@1@ABV?$allocator@D@1@@Z 0041e930 f i win32_main.obj
 0001:0001d970       ??$?0ABV?$allocator@D@std@@@?$_Wrap_alloc@V?$allocator@D@std@@@std@@QAE@ABV?$allocator@D@1@@Z 0041e970 f i win32_main.obj
 0001:0001d9a0       ??$?0ABV?$allocator@D@std@@X@?$_String_alloc@U?$_String_base_types@DV?$allocator@D@std@@@std@@@std@@QAE@ABV?$allocator@D@1@@Z 0041e9a0 f i win32_main.obj
 0001:0001d9e0       ??$?0U?$_Wrap_alloc@V?$allocator@D@std@@@std@@$$V@?$_Compressed_pair@U?$_Wrap_alloc@V?$allocator@D@std@@@std@@V?$_String_val@U?$_Simple_types@D@std@@@2@$00@std@@QAE@U_One_then_variadic_args_t@1@$$QAU?$_Wrap_alloc@V?$allocator@D@std@@@1@@Z 0041e9e0 f i win32_main.obj
 0001:0001da20       ??$?0U?$_Wrap_alloc@V?$allocator@D@std@@@std@@X@?$_String_alloc@U?$_String_base_types@DV?$allocator@D@std@@@std@@@std@@QAE@$$QAU?$_Wrap_alloc@V?$allocator@D@std@@@1@@Z 0041ea20 f i win32_main.obj
 0001:0001da60       ??$?0V?$_Vector_iterator@V?$_Vector_val@U?$_Simple_types@D@std@@@std@@@std@@X@?$basic_string@DU?$char_traits@D@std@@V?$allocator@D@2@@std@@QAE@V?$_Vector_iterator@V?$_Vector_val@U?$_Simple_types@D@std@@@std@@@1@0ABV?$allocator@D@1@@Z 0041ea60 f i win32_main.obj
 0001:0001db20       ??$?0V?$allocator@D@std@@@?$_Wrap_alloc@V?$allocator@D@std@@@std@@QAE@$$QAV?$allocator@D@1@@Z 0041eb20 f i win32_main.obj
 0001:0001db50       ??$?6DU?$char_traits@D@std@@V?$allocator@D@1@@std@@YAAAV?$basic_ostream@DU?$char_traits@D@std@@@0@AAV10@ABV?$basic_string@DU?$char_traits@D@std@@V?$allocator@D@2@@0@@Z 0041eb50 f i win32_main.obj
 0001:0001dee0       ??$?6U?$char_traits@D@std@@@std@@YAAAV?$basic_ostream@DU?$char_traits@D@std@@@0@AAV10@D@Z 0041eee0 f i win32_main.obj
 0001:0001e280       ??$?RV?$mersenne_twister_engine@I$0CA@$0CHA@$0BIN@$0BP@$0JJAILANP@$0L@$0PPPPPPPP@$06$0JNCMFGIA@$0P@$0OPMGAAAA@$0BC@$0GMAHIJGF@@std@@@?$normal_distribution@M@std@@QAEMAAV?$mersenne_twister_engine@I$0CA@$0CHA@$0BIN@$0BP@$0JJAILANP@$0L@$0PPPPPPPP@$06$0JNCMFGIA@$0P@$0OPMGAAAA@$0BC@$0GMAHIJGF@@1@@Z 0041f280 f i win32_main.obj
 0001:0001e2b0       ??$?RV?$mersenne_twister_engine@I$0CA@$0CHA@$0BIN@$0BP@$0JJAILANP@$0L@$0PPPPPPPP@$06$0JNCMFGIA@$0P@$0OPMGAAAA@$0BC@$0GMAHIJGF@@std@@@?$uniform_real@M@std@@QBEMAAV?$mersenne_twister_engine@I$0CA@$0CHA@$0BIN@$0BP@$0JJAILANP@$0L@$0PPPPPPPP@$06$0JNCMFGIA@$0P@$0OPMGAAAA@$0BC@$0GMAHIJGF@@1@@Z 0041f2b0 f i win32_main.obj
 0001:0001e2e0       ??$_Destroy_range1@V?$allocator@D@std@@PAD@std@@YAXPAD0AAU?$_Wrap_alloc@V?$allocator@D@std@@@0@U?$integral_constant@_N$00@0@@Z 0041f2e0 f i win32_main.obj
 0001:0001e2f0       ??$_Destroy_range@V?$allocator@D@std@@PAD@std@@YAXPAD0AAU?$_Wrap_alloc@V?$allocator@D@std@@@0@@Z 0041f2f0 f i win32_main.obj
 0001:0001e320       ??$_Eval@V?$mersenne_twister_engine@I$0CA@$0CHA@$0BIN@$0BP@$0JJAILANP@$0L@$0PPPPPPPP@$06$0JNCMFGIA@$0P@$0OPMGAAAA@$0BC@$0GMAHIJGF@@std@@@?$normal_distribution@M@std@@AAEMAAV?$mersenne_twister_engine@I$0CA@$0CHA@$0BIN@$0BP@$0JJAILANP@$0L@$0PPPPPPPP@$06$0JNCMFGIA@$0P@$0OPMGAAAA@$0BC@$0GMAHIJGF@@1@ABUparam_type@01@_N@Z 0041f320 f i win32_main.obj
 0001:0001e4b0       ??$_Eval@V?$mersenne_twister_engine@I$0CA@$0CHA@$0BIN@$0BP@$0JJAILANP@$0L@$0PPPPPPPP@$06$0JNCMFGIA@$0P@$0OPMGAAAA@$0BC@$0GMAHIJGF@@std@@@?$uniform_real@M@std@@ABEMAAV?$mersenne_twister_engine@I$0CA@$0CHA@$0BIN@$0BP@$0JJAILANP@$0L@$0PPPPPPPP@$06$0JNCMFGIA@$0P@$0OPMGAAAA@$0BC@$0GMAHIJGF@@1@ABUparam_type@01@@Z 0041f4b0 f i win32_main.obj
 0001:0001e510       ??$_Unchecked@V?$_Vector_val@U?$_Simple_types@D@std@@@std@@@std@@YAPADV?$_Vector_iterator@V?$_Vector_val@U?$_Simple_types@D@std@@@std@@@0@@Z 0041f510 f i win32_main.obj
 0001:0001e520       ??$_Unfancy@D@std@@YAPADPAD@Z 0041f520 f i win32_main.obj
 0001:0001e530       ??$_Uninitialized_default_fill_n1@PADIV?$allocator@D@std@@@std@@YAXPADIAAU?$_Wrap_alloc@V?$allocator@D@std@@@0@U?$integral_constant@_N$00@0@@Z 0041f530 f i win32_main.obj
 0001:0001e550       ??$_Uninitialized_default_fill_n@PADIV?$allocator@D@std@@@std@@YAXPADIAAU?$_Wrap_alloc@V?$allocator@D@std@@@0@@Z 0041f550 f i win32_main.obj
 0001:0001e580       ??$addressof@PAD@std@@YAPAPADAAPAD@Z 0041f580 f i win32_main.obj
 0001:0001e590       ??$construct@PADAAPAD@?$_Wrap_alloc@V?$allocator@D@std@@@std@@QAEXPAPADAAPAD@Z 0041f590 f i win32_main.obj
 0001:0001e5d0       ??$construct@PADAAPAD@?$allocator@D@std@@QAEXPAPADAAPAD@Z 0041f5d0 f i win32_main.obj
 0001:0001e630       ??$construct@PADAAPAD@?$allocator_traits@V?$allocator@D@std@@@std@@SAXAAV?$allocator@D@1@PAPADAAPAD@Z 0041f630 f i win32_main.obj
 0001:0001e660       ??$destroy@PAD@?$_Wrap_alloc@V?$allocator@D@std@@@std@@QAEXPAPAD@Z 0041f660 f i win32_main.obj
 0001:0001e690       ??$destroy@PAD@?$allocator@D@std@@QAEXPAPAD@Z 0041f690 f i win32_main.obj
 0001:0001e6a0       ??$destroy@PAD@?$allocator_traits@V?$allocator@D@std@@@std@@SAXAAV?$allocator@D@1@PAPAD@Z 0041f6a0 f i win32_main.obj
 0001:0001e6c0       ??$endl@DU?$char_traits@D@std@@@std@@YAAAV?$basic_ostream@DU?$char_traits@D@std@@@0@AAV10@@Z 0041f6c0 f i win32_main.obj
 0001:0001e700       ??$forward@AAPAD@std@@YAAAPADAAPAD@Z 0041f700 f i win32_main.obj
 0001:0001e710       ??$forward@ABV?$allocator@D@std@@@std@@YAABV?$allocator@D@0@ABV10@@Z 0041f710 f i win32_main.obj
 0001:0001e720       ??$forward@U?$_Wrap_alloc@V?$allocator@D@std@@@std@@@std@@YA$$QAU?$_Wrap_alloc@V?$allocator@D@std@@@0@AAU10@@Z 0041f720 f i win32_main.obj
 0001:0001e730       ??$forward@V?$allocator@D@std@@@std@@YA$$QAV?$allocator@D@0@AAV10@@Z 0041f730 f i win32_main.obj
 0001:0001e740       ??$generate_canonical@M$0PPPPPPPP@V?$mersenne_twister_engine@I$0CA@$0CHA@$0BIN@$0BP@$0JJAILANP@$0L@$0PPPPPPPP@$06$0JNCMFGIA@$0P@$0OPMGAAAA@$0BC@$0GMAHIJGF@@std@@@std@@YAMAAV?$mersenne_twister_engine@I$0CA@$0CHA@$0BIN@$0BP@$0JJAILANP@$0L@$0PPPPPPPP@$06$0JNCMFGIA@$0P@$0OPMGAAAA@$0BC@$0GMAHIJGF@@0@@Z 0041f740 f i win32_main.obj
 0001:0001e900       ??$move@AAU?$_Wrap_alloc@V?$allocator@D@std@@@std@@@std@@YA$$QAU?$_Wrap_alloc@V?$allocator@D@std@@@0@AAU10@@Z 0041f900 f i win32_main.obj
 0001:0001e910       ??0?$_String_alloc@U?$_String_base_types@DV?$allocator@D@std@@@std@@@std@@QAE@XZ 0041f910 f i win32_main.obj
 0001:0001e940       ??0?$_String_val@U?$_Simple_types@D@std@@@std@@QAE@XZ 0041f940 f i win32_main.obj
 0001:0001e980       ??0?$_Vector_alloc@U?$_Vec_base_types@DV?$allocator@D@std@@@std@@@std@@QAE@XZ 0041f980 f i win32_main.obj
 0001:0001e9b0       ??0?$_Vector_const_iterator@V?$_Vector_val@U?$_Simple_types@D@std@@@std@@@std@@QAE@PADPBU_Container_base0@1@@Z 0041f9b0 f i win32_main.obj
 0001:0001e9e0       ??0?$_Vector_iterator@V?$_Vector_val@U?$_Simple_types@D@std@@@std@@@std@@QAE@PADPBU_Container_base0@1@@Z 0041f9e0 f i win32_main.obj
 0001:0001ea10       ??0?$_Vector_val@U?$_Simple_types@D@std@@@std@@QAE@XZ 0041fa10 f i win32_main.obj
 0001:0001ea50       ??0?$_Wrap_alloc@V?$allocator@D@std@@@std@@QAE@$$QAU01@@Z 0041fa50 f i win32_main.obj
 0001:0001ea80       ??0?$_Wrap_alloc@V?$allocator@D@std@@@std@@QAE@XZ 0041fa80 f i win32_main.obj
 0001:0001eaa0       ??0?$allocator@D@std@@QAE@ABV01@@Z 0041faa0 f i win32_main.obj
 0001:0001eac0       ??0?$allocator@D@std@@QAE@XZ 0041fac0 f i win32_main.obj
 0001:0001eae0       ??0?$basic_string@DU?$char_traits@D@std@@V?$allocator@D@2@@std@@QAE@ABV01@@Z 0041fae0 f i win32_main.obj
 0001:0001eb90       ??0?$basic_string@DU?$char_traits@D@std@@V?$allocator@D@2@@std@@QAE@PBD@Z 0041fb90 f i win32_main.obj
 0001:0001ec20       ??0?$mersenne_twister@I$0CA@$0CHA@$0BIN@$0BP@$0JJAILANP@$0L@$06$0JNCMFGIA@$0P@$0OPMGAAAA@$0BC@@std@@QAE@III@Z 0041fc20 f i win32_main.obj
 0001:0001ec60       ??0?$mersenne_twister_engine@I$0CA@$0CHA@$0BIN@$0BP@$0JJAILANP@$0L@$0PPPPPPPP@$06$0JNCMFGIA@$0P@$0OPMGAAAA@$0BC@$0GMAHIJGF@@std@@QAE@I@Z 0041fc60 f i win32_main.obj
 0001:0001ec90       ??0?$normal_distribution@M@std@@QAE@MM@Z 0041fc90 f i win32_main.obj
 0001:0001ece0       ??0?$uniform_real@M@std@@QAE@MM@Z 0041fce0 f i win32_main.obj
 0001:0001ed20       ??0?$uniform_real_distribution@M@std@@QAE@MM@Z 0041fd20 f i win32_main.obj
 0001:0001ed60       ??0?$vector@DV?$allocator@D@std@@@std@@QAE@I@Z 0041fd60 f i win32_main.obj
 0001:0001ee60       ??0_Bxty@?$_String_val@U?$_Simple_types@D@std@@@std@@QAE@XZ 0041fe60 f i win32_main.obj
 0001:0001ee80       ??0_Sentry_base@?$basic_ostream@DU?$char_traits@D@std@@@std@@QAE@AAV12@@Z 0041fe80 f i win32_main.obj
 0001:0001ef00       ??0param_type@?$normal_distribution@M@std@@QAE@MM@Z 0041ff00 f i win32_main.obj
 0001:0001ef40       ??0param_type@?$uniform_real@M@std@@QAE@MM@Z 0041ff40 f i win32_main.obj
 0001:0001ef80       ??0random_device@std@@QAE@ABV?$basic_string@DU?$char_traits@D@std@@V?$allocator@D@2@@1@@Z 0041ff80 f i win32_main.obj
 0001:0001efa0       ??0sentry@?$basic_ostream@DU?$char_traits@D@std@@@std@@QAE@AAV12@@Z 0041ffa0 f i win32_main.obj
 0001:0001f0a0       ??1?$_Compressed_pair@U?$_Wrap_alloc@V?$allocator@D@std@@@std@@V?$_String_val@U?$_Simple_types@D@std@@@2@$00@std@@QAE@XZ 004200a0 f i win32_main.obj
 0001:0001f0c0       ??1?$_String_alloc@U?$_String_base_types@DV?$allocator@D@std@@@std@@@std@@QAE@XZ 004200c0 f i win32_main.obj
 0001:0001f0e0       ??1?$_String_val@U?$_Simple_types@D@std@@@std@@QAE@XZ 004200e0 f i win32_main.obj
 0001:0001f100       ??1?$basic_string@DU?$char_traits@D@std@@V?$allocator@D@2@@std@@QAE@XZ 00420100 f i win32_main.obj
 0001:0001f160       ??1?$vector@DV?$allocator@D@std@@@std@@QAE@XZ 00420160 f i win32_main.obj
 0001:0001f1b0       ??1_Bxty@?$_String_val@U?$_Simple_types@D@std@@@std@@QAE@XZ 004201b0 f i win32_main.obj
 0001:0001f1c0       ??1_Sentry_base@?$basic_ostream@DU?$char_traits@D@std@@@std@@QAE@XZ 004201c0 f i win32_main.obj
 0001:0001f260       ??1sentry@?$basic_ostream@DU?$char_traits@D@std@@@std@@QAE@XZ 00420260 f i win32_main.obj
 0001:0001f2d0       ??2@YAPAXIPAX@Z            004202d0 f i win32_main.obj
 0001:0001f2e0       ??A?$vector@DV?$allocator@D@std@@@std@@QAEAADI@Z 004202e0 f i win32_main.obj
 0001:0001f300       ??Bsentry@?$basic_ostream@DU?$char_traits@D@std@@@std@@QBE_NXZ 00420300 f i win32_main.obj
 0001:0001f320       ??R?$mersenne_twister@I$0CA@$0CHA@$0BIN@$0BP@$0JJAILANP@$0L@$06$0JNCMFGIA@$0P@$0OPMGAAAA@$0BC@@std@@QAEIXZ 00420320 f i win32_main.obj
 0001:0001f3e0       ??Rrandom_device@std@@QAEIXZ 004203e0 f i win32_main.obj
 0001:0001f400       ?_Adopt@_Iterator_base0@std@@QAEXPBX@Z 00420400 f i win32_main.obj
 0001:0001f410       ?_Allocate@std@@YAPAXII_N@Z 00420410 f i win32_main.obj
 0001:0001f500       ?_Buy@?$vector@DV?$allocator@D@std@@@std@@IAE_NI@Z 00420500 f i win32_main.obj
 0001:0001f5e0       ?_Bx@?$_String_alloc@U?$_String_base_types@DV?$allocator@D@std@@@std@@@std@@QAEAAT_Bxty@?$_String_val@U?$_Simple_types@D@std@@@2@XZ 004205e0 f i win32_main.obj
 0001:0001f600       ?_Check_offset@?$basic_string@DU?$char_traits@D@std@@V?$allocator@D@2@@std@@QBEXI@Z 00420600 f i win32_main.obj
 0001:0001f630       ?_Clamp_suffix_size@?$basic_string@DU?$char_traits@D@std@@V?$allocator@D@2@@std@@QBEIII@Z 00420630 f i win32_main.obj
 0001:0001f670       ?_Construct@?$basic_string@DU?$char_traits@D@std@@V?$allocator@D@2@@std@@QAEXPAD0Urandom_access_iterator_tag@2@@Z 00420670 f i win32_main.obj
 0001:0001f6b0       ?_Copy@?$basic_string@DU?$char_traits@D@std@@V?$allocator@D@2@@std@@QAEXII@Z 004206b0 f i win32_main.obj
 0001:0001f900       ?_Deallocate@std@@YAXPAXII@Z 00420900 f i win32_main.obj
 0001:0001f9c0       ?_Destroy@?$vector@DV?$allocator@D@std@@@std@@IAEXPAD0@Z 004209c0 f i win32_main.obj
 0001:0001f9f0       ?_Eos@?$basic_string@DU?$char_traits@D@std@@V?$allocator@D@2@@std@@QAEXI@Z 004209f0 f i win32_main.obj
 0001:0001fa40       ?_Get_data@?$_String_alloc@U?$_String_base_types@DV?$allocator@D@std@@@std@@@std@@QAEAAV?$_String_val@U?$_Simple_types@D@std@@@2@XZ 00420a40 f i win32_main.obj
 0001:0001fa60       ?_Get_data@?$_String_alloc@U?$_String_base_types@DV?$allocator@D@std@@@std@@@std@@QBEABV?$_String_val@U?$_Simple_types@D@std@@@2@XZ 00420a60 f i win32_main.obj
 0001:0001fa80       ?_Get_data@?$_Vector_alloc@U?$_Vec_base_types@DV?$allocator@D@std@@@std@@@std@@QAEAAV?$_Vector_val@U?$_Simple_types@D@std@@@2@XZ 00420a80 f i win32_main.obj
 0001:0001faa0       ?_Get_first@?$_Compressed_pair@U?$_Wrap_alloc@V?$allocator@D@std@@@std@@V?$_String_val@U?$_Simple_types@D@std@@@2@$00@std@@QAEAAU?$_Wrap_alloc@V?$allocator@D@std@@@2@XZ 00420aa0 f i win32_main.obj
 0001:0001fac0       ?_Get_first@?$_Compressed_pair@U?$_Wrap_alloc@V?$allocator@D@std@@@std@@V?$_String_val@U?$_Simple_types@D@std@@@2@$00@std@@QBEABU?$_Wrap_alloc@V?$allocator@D@std@@@2@XZ 00420ac0 f i win32_main.obj
 0001:0001fae0       ?_Get_first@?$_Compressed_pair@U?$_Wrap_alloc@V?$allocator@D@std@@@std@@V?$_Vector_val@U?$_Simple_types@D@std@@@2@$00@std@@QAEAAU?$_Wrap_alloc@V?$allocator@D@std@@@2@XZ 00420ae0 f i win32_main.obj
 0001:0001fb00       ?_Get_first@?$_Compressed_pair@U?$_Wrap_alloc@V?$allocator@D@std@@@std@@V?$_Vector_val@U?$_Simple_types@D@std@@@2@$00@std@@QBEABU?$_Wrap_alloc@V?$allocator@D@std@@@2@XZ 00420b00 f i win32_main.obj
 0001:0001fb20       ?_Get_second@?$_Compressed_pair@U?$_Wrap_alloc@V?$allocator@D@std@@@std@@V?$_String_val@U?$_Simple_types@D@std@@@2@$00@std@@QAEAAV?$_String_val@U?$_Simple_types@D@std@@@2@XZ 00420b20 f i win32_main.obj
 0001:0001fb40       ?_Get_second@?$_Compressed_pair@U?$_Wrap_alloc@V?$allocator@D@std@@@std@@V?$_String_val@U?$_Simple_types@D@std@@@2@$00@std@@QBEABV?$_String_val@U?$_Simple_types@D@std@@@2@XZ 00420b40 f i win32_main.obj
 0001:0001fb60       ?_Get_second@?$_Compressed_pair@U?$_Wrap_alloc@V?$allocator@D@std@@@std@@V?$_Vector_val@U?$_Simple_types@D@std@@@2@$00@std@@QAEAAV?$_Vector_val@U?$_Simple_types@D@std@@@2@XZ 00420b60 f i win32_main.obj
 0001:0001fb80       ?_Getal@?$_String_alloc@U?$_String_base_types@DV?$allocator@D@std@@@std@@@std@@QAEAAU?$_Wrap_alloc@V?$allocator@D@std@@@2@XZ 00420b80 f i win32_main.obj
 0001:0001fba0       ?_Getal@?$_String_alloc@U?$_String_base_types@DV?$allocator@D@std@@@std@@@std@@QBEABU?$_Wrap_alloc@V?$allocator@D@std@@@2@XZ 00420ba0 f i win32_main.obj
 0001:0001fbc0       ?_Getal@?$_Vector_alloc@U?$_Vec_base_types@DV?$allocator@D@std@@@std@@@std@@QAEAAU?$_Wrap_alloc@V?$allocator@D@std@@@2@XZ 00420bc0 f i win32_main.obj
 0001:0001fbe0       ?_Getal@?$_Vector_alloc@U?$_Vec_base_types@DV?$allocator@D@std@@@std@@@std@@QBEABU?$_Wrap_alloc@V?$allocator@D@std@@@2@XZ 00420be0 f i win32_main.obj
 0001:0001fc00       ?_Grow@?$basic_string@DU?$char_traits@D@std@@V?$allocator@D@2@@std@@QAE_NI_N@Z 00420c00 f i win32_main.obj
 0001:0001fcf0       ?_Init@param_type@?$normal_distribution@M@std@@QAEXMM@Z 00420cf0 f i win32_main.obj
 0001:0001fd20       ?_Init@param_type@?$uniform_real@M@std@@QAEXMM@Z 00420d20 f i win32_main.obj
 0001:0001fd50       ?_Inside@?$basic_string@DU?$char_traits@D@std@@V?$allocator@D@2@@std@@QAE_NPBD@Z 00420d50 f i win32_main.obj
 0001:0001fdb0       ?_Myend@?$_Vector_alloc@U?$_Vec_base_types@DV?$allocator@D@std@@@std@@@std@@QAEAAPADXZ 00420db0 f i win32_main.obj
 0001:0001fdd0       ?_Myfirst@?$_Vector_alloc@U?$_Vec_base_types@DV?$allocator@D@std@@@std@@@std@@QAEAAPADXZ 00420dd0 f i win32_main.obj
 0001:0001fdf0       ?_Mylast@?$_Vector_alloc@U?$_Vec_base_types@DV?$allocator@D@std@@@std@@@std@@QAEAAPADXZ 00420df0 f i win32_main.obj
 0001:0001fe10       ?_Myptr@?$_String_alloc@U?$_String_base_types@DV?$allocator@D@std@@@std@@@std@@QAEPADXZ 00420e10 f i win32_main.obj
 0001:0001fe30       ?_Myptr@?$_String_alloc@U?$_String_base_types@DV?$allocator@D@std@@@std@@@std@@QBEPBDXZ 00420e30 f i win32_main.obj
 0001:0001fe50       ?_Myptr@?$_String_val@U?$_Simple_types@D@std@@@std@@QAEPADXZ 00420e50 f i win32_main.obj
 0001:0001fe90       ?_Myptr@?$_String_val@U?$_Simple_types@D@std@@@std@@QBEPBDXZ 00420e90 f i win32_main.obj
 0001:0001fed0       ?_Myres@?$_String_alloc@U?$_String_base_types@DV?$allocator@D@std@@@std@@@std@@QAEAAIXZ 00420ed0 f i win32_main.obj
 0001:0001fef0       ?_Mysize@?$_String_alloc@U?$_String_base_types@DV?$allocator@D@std@@@std@@@std@@QAEAAIXZ 00420ef0 f i win32_main.obj
 0001:0001ff10       ?_Mysize@?$_String_alloc@U?$_String_base_types@DV?$allocator@D@std@@@std@@@std@@QBEABIXZ 00420f10 f i win32_main.obj
 0001:0001ff30       ?_Orphan_all@?$_Vector_alloc@U?$_Vec_base_types@DV?$allocator@D@std@@@std@@@std@@QAEXXZ 00420f30 f i win32_main.obj
 0001:0001ff50       ?_Orphan_all@_Container_base0@std@@QAEXXZ 00420f50 f i win32_main.obj
 0001:0001ff60       ?_Refill_lower@?$mersenne_twister@I$0CA@$0CHA@$0BIN@$0BP@$0JJAILANP@$0L@$06$0JNCMFGIA@$0P@$0OPMGAAAA@$0BC@@std@@IAEXXZ 00420f60 f i win32_main.obj
 0001:00020140       ?_Refill_upper@?$mersenne_twister@I$0CA@$0CHA@$0BIN@$0BP@$0JJAILANP@$0L@$06$0JNCMFGIA@$0P@$0OPMGAAAA@$0BC@@std@@IAEXXZ 00421140 f i win32_main.obj
 0001:000201f0       ?_Tidy@?$basic_string@DU?$char_traits@D@std@@V?$allocator@D@2@@std@@QAEX_NI@Z 004211f0 f i win32_main.obj
 0001:000202e0       ?_Tidy@?$vector@DV?$allocator@D@std@@@std@@IAEXXZ 004212e0 f i win32_main.obj
 0001:000203b0       ?_Unchecked@?$_Vector_iterator@V?$_Vector_val@U?$_Simple_types@D@std@@@std@@@std@@QBEPADXZ 004213b0 f i win32_main.obj
 0001:000203d0       ?_Xlen@?$basic_string@DU?$char_traits@D@std@@V?$allocator@D@2@@std@@QBEXXZ 004213d0 f i win32_main.obj
 0001:000203f0       ?_Xlen@?$vector@DV?$allocator@D@std@@@std@@IBEXXZ 004213f0 f i win32_main.obj
 0001:00020410       ?_Xran@?$basic_string@DU?$char_traits@D@std@@V?$allocator@D@2@@std@@QBEXXZ 00421410 f i win32_main.obj
 0001:00020430       ?allocate@?$_Wrap_alloc@V?$allocator@D@std@@@std@@QAEPADI@Z 00421430 f i win32_main.obj
 0001:00020450       ?allocate@?$allocator@D@std@@QAEPADI@Z 00421450 f i win32_main.obj
 0001:00020480       ?assign@?$basic_string@DU?$char_traits@D@std@@V?$allocator@D@2@@std@@QAEAAV12@ABV12@II@Z 00421480 f i win32_main.obj
 0001:00020540       ?assign@?$basic_string@DU?$char_traits@D@std@@V?$allocator@D@2@@std@@QAEAAV12@PBD@Z 00421540 f i win32_main.obj
 0001:00020570       ?assign@?$basic_string@DU?$char_traits@D@std@@V?$allocator@D@2@@std@@QAEAAV12@PBDI@Z 00421570 f i win32_main.obj
 0001:00020610       ?assign@?$char_traits@D@std@@SAXAADABD@Z 00421610 f i win32_main.obj
 0001:00020630       ?begin@?$vector@DV?$allocator@D@std@@@std@@QAE?AV?$_Vector_iterator@V?$_Vector_val@U?$_Simple_types@D@std@@@std@@@2@XZ 00421630 f i win32_main.obj
 0001:000206a0       ?c_str@?$basic_string@DU?$char_traits@D@std@@V?$allocator@D@2@@std@@QBEPBDXZ 004216a0 f i win32_main.obj
 0001:000206f0       ?ceil@@YAMM@Z              004216f0 f i win32_main.obj
 0001:00020750       ?copy@?$char_traits@D@std@@SAPADPADPBDI@Z 00421750 f i win32_main.obj
 0001:00020790       ?cos@@YAMM@Z               00421790 f i win32_main.obj
 0001:000207f0       ?deallocate@?$_Wrap_alloc@V?$allocator@D@std@@@std@@QAEXPADI@Z 004217f0 f i win32_main.obj
 0001:00020820       ?deallocate@?$allocator@D@std@@QAEXPADI@Z 00421820 f i win32_main.obj
 0001:00020850       ?end@?$vector@DV?$allocator@D@std@@@std@@QAE?AV?$_Vector_iterator@V?$_Vector_val@U?$_Simple_types@D@std@@@std@@@2@XZ 00421850 f i win32_main.obj
 0001:000208c0       ?eof@?$char_traits@D@std@@SAHXZ 004218c0 f i win32_main.obj
 0001:000208d0       ?eq_int_type@?$char_traits@D@std@@SA_NABH0@Z 004218d0 f i win32_main.obj
 0001:00020900       ?erase@?$basic_string@DU?$char_traits@D@std@@V?$allocator@D@2@@std@@QAEAAV12@I@Z 00421900 f i win32_main.obj
 0001:00020940       ?erase@?$basic_string@DU?$char_traits@D@std@@V?$allocator@D@2@@std@@QAEAAV12@II@Z 00421940 f i win32_main.obj
 0001:000209f0       ?ldexp@@YAMMH@Z            004219f0 f i win32_main.obj
 0001:00020a50       ?length@?$char_traits@D@std@@SAIPBD@Z 00421a50 f i win32_main.obj
 0001:00020ac0       ?log2@@YAMM@Z              00421ac0 f i win32_main.obj
 0001:00020b20       ?max@?$mersenne_twister_engine@I$0CA@$0CHA@$0BIN@$0BP@$0JJAILANP@$0L@$0PPPPPPPP@$06$0JNCMFGIA@$0P@$0OPMGAAAA@$0BC@$0GMAHIJGF@@std@@SAIXZ 00421b20 f i win32_main.obj
 0001:00020b30       ?max_size@?$_Wrap_alloc@V?$allocator@D@std@@@std@@QBEIU_Nil@2@@Z 00421b30 f i win32_main.obj
 0001:00020b50       ?max_size@?$allocator@D@std@@QBEIXZ 00421b50 f i win32_main.obj
 0001:00020b70       ?max_size@?$allocator_traits@V?$allocator@D@std@@@std@@SAIABV?$allocator@D@2@@Z 00421b70 f i win32_main.obj
 0001:00020b80       ?max_size@?$basic_string@DU?$char_traits@D@std@@V?$allocator@D@2@@std@@QBEIXZ 00421b80 f i win32_main.obj
 0001:00020bd0       ?max_size@?$vector@DV?$allocator@D@std@@@std@@QBEIXZ 00421bd0 f i win32_main.obj
 0001:00020c00       ?min@?$mersenne_twister_engine@I$0CA@$0CHA@$0BIN@$0BP@$0JJAILANP@$0L@$0PPPPPPPP@$06$0JNCMFGIA@$0P@$0OPMGAAAA@$0BC@$0GMAHIJGF@@std@@SAIXZ 00421c00 f i win32_main.obj
 0001:00020c10       ?move@?$char_traits@D@std@@SAPADPADPBDI@Z 00421c10 f i win32_main.obj
 0001:00020c50       ?pow@@YAMMM@Z              00421c50 f i win32_main.obj
 0001:00020cc0       ?seed@?$mersenne_twister@I$0CA@$0CHA@$0BIN@$0BP@$0JJAILANP@$0L@$06$0JNCMFGIA@$0P@$0OPMGAAAA@$0BC@@std@@QAEXII@Z 00421cc0 f i win32_main.obj
 0001:00020d60       ?select_on_container_copy_construction@?$_Wrap_alloc@V?$allocator@D@std@@@std@@QBE?AU12@U_Nil@2@@Z 00421d60 f i win32_main.obj
 0001:00020da0       ?select_on_container_copy_construction@?$allocator_traits@V?$allocator@D@std@@@std@@SA?AV?$allocator@D@2@ABV32@@Z 00421da0 f i win32_main.obj
 0001:00020dc0       ?sin@@YAMM@Z               00421dc0 f i win32_main.obj
 0001:00020e20       ?size@?$basic_string@DU?$char_traits@D@std@@V?$allocator@D@2@@std@@QBEIXZ 00421e20 f i win32_main.obj
 0001:00020e40       _ceilf                     00421e40 f i win32_main.obj
 0001:00020e90       _cosf                      00421e90 f i win32_main.obj
 0001:00020ec0       _ldexpf                    00421ec0 f i win32_main.obj
 0001:00020f00       _powf                      00421f00 f i win32_main.obj
 0001:00020f30       _sinf                      00421f30 f i win32_main.obj
 0001:00020f60       _gladLoadGL                00421f60 f   glad.obj
 0001:00020f90       _gladLoadGLLoader          00421f90 f   glad.obj
 0001:00023710       ___local_stdio_scanf_options 00424710 f i glad.obj
 0001:00023720       __vsscanf_s_l              00424720 f i glad.obj
 0001:00023760       _sscanf_s                  00424760 f i glad.obj
 0001:000237a0       _vsscanf_s                 004247a0 f i glad.obj
 0001:000237d0       ___local_stdio_printf_options 004247d0 f i glfw3:init.obj
 0001:000237e0       __glfwInputError           004247e0 f   glfw3:init.obj
 0001:00023be0       __glfw_fmaxf               00424be0 f   glfw3:init.obj
 0001:00023c20       __glfw_fminf               00424c20 f   glfw3:init.obj
 0001:00023c60       __glfw_strdup              00424c60 f   glfw3:init.obj
 0001:00023cb0       _glfwGetError              00424cb0 f   glfw3:init.obj
 0001:00023d20       _glfwGetVersion            00424d20 f   glfw3:init.obj
 0001:00023d60       _glfwGetVersionString      00424d60 f   glfw3:init.obj
 0001:00023d70       _glfwInit                  00424d70 f   glfw3:init.obj
 0001:00023ea0       _glfwInitHint              00424ea0 f   glfw3:init.obj
 0001:00023f10       _glfwSetErrorCallback      00424f10 f   glfw3:init.obj
 0001:00023f30       _glfwTerminate             00424f30 f   glfw3:init.obj
 0001:000240d0       __glfwInputFramebufferSize 004250d0 f   glfw3:window.obj
 0001:000240f0       __glfwInputWindowCloseRequest 004250f0 f   glfw3:window.obj
 0001:00024120       __glfwInputWindowContentScale 00425120 f   glfw3:window.obj
 0001:00024160       __glfwInputWindowDamage    00425160 f   glfw3:window.obj
 0001:00024180       __glfwInputWindowFocus     00425180 f   glfw3:window.obj
 0001:00024200       __glfwInputWindowIconify   00425200 f   glfw3:window.obj
 0001:00024220       __glfwInputWindowMaximize  00425220 f   glfw3:window.obj
 0001:00024240       __glfwInputWindowMonitor   00425240 f   glfw3:window.obj
 0001:00024260       __glfwInputWindowPos       00425260 f   glfw3:window.obj
 0001:00024280       __glfwInputWindowSize      00425280 f   glfw3:window.obj
 0001:000242a0       _glfwCreateWindow          004252a0 f   glfw3:window.obj
 0001:000245c0       _glfwDefaultWindowHints    004255c0 f   glfw3:window.obj
 0001:000246c0       _glfwDestroyWindow         004256c0 f   glfw3:window.obj
 0001:00024770       _glfwFocusWindow           00425770 f   glfw3:window.obj
 0001:000247a0       _glfwGetFramebufferSize    004257a0 f   glfw3:window.obj
 0001:00024800       _glfwGetWindowAttrib       00425800 f   glfw3:window.obj
 0001:00024a30       _glfwGetWindowContentScale 00425a30 f   glfw3:window.obj
 0001:00024a90       _glfwGetWindowFrameSize    00425a90 f   glfw3:window.obj
 0001:00024b10       _glfwGetWindowMonitor      00425b10 f   glfw3:window.obj
 0001:00024b40       _glfwGetWindowOpacity      00425b40 f   glfw3:window.obj
 0001:00024b70       _glfwGetWindowPos          00425b70 f   glfw3:window.obj
 0001:00024bd0       _glfwGetWindowSize         00425bd0 f   glfw3:window.obj
 0001:00024c30       _glfwGetWindowUserPointer  00425c30 f   glfw3:window.obj
 0001:00024c60       _glfwHideWindow            00425c60 f   glfw3:window.obj
 0001:00024ca0       _glfwIconifyWindow         00425ca0 f   glfw3:window.obj
 0001:00024cd0       _glfwMaximizeWindow        00425cd0 f   glfw3:window.obj
 0001:00024d10       _glfwPollEvents            00425d10 f   glfw3:window.obj
 0001:00024d40       _glfwPostEmptyEvent        00425d40 f   glfw3:window.obj
 0001:00024d70       _glfwRequestWindowAttention 00425d70 f   glfw3:window.obj
 0001:00024da0       _glfwRestoreWindow         00425da0 f   glfw3:window.obj
 0001:00024dd0       _glfwSetFramebufferSizeCallback 00425dd0 f   glfw3:window.obj
 0001:00024e10       _glfwSetWindowAspectRatio  00425e10 f   glfw3:window.obj
 0001:00024ea0       _glfwSetWindowAttrib       00425ea0 f   glfw3:window.obj
 0001:00024fa0       _glfwSetWindowCloseCallback 00425fa0 f   glfw3:window.obj
 0001:00024fe0       _glfwSetWindowContentScaleCallback 00425fe0 f   glfw3:window.obj
 0001:00025020       _glfwSetWindowFocusCallback 00426020 f   glfw3:window.obj
 0001:00025060       _glfwSetWindowIcon         00426060 f   glfw3:window.obj
 0001:00025090       _glfwSetWindowIconifyCallback 00426090 f   glfw3:window.obj
 0001:000250d0       _glfwSetWindowMaximizeCallback 004260d0 f   glfw3:window.obj
 0001:00025110       _glfwSetWindowMonitor      00426110 f   glfw3:window.obj
 0001:000251c0       _glfwSetWindowOpacity      004261c0 f   glfw3:window.obj
 0001:00025250       _glfwSetWindowPos          00426250 f   glfw3:window.obj
 0001:00025290       _glfwSetWindowPosCallback  00426290 f   glfw3:window.obj
 0001:000252d0       _glfwSetWindowRefreshCallback 004262d0 f   glfw3:window.obj
 0001:00025310       _glfwSetWindowShouldClose  00426310 f   glfw3:window.obj
 0001:00025350       _glfwSetWindowSize         00426350 f   glfw3:window.obj
 0001:000253a0       _glfwSetWindowSizeCallback 004263a0 f   glfw3:window.obj
 0001:000253e0       _glfwSetWindowSizeLimits   004263e0 f   glfw3:window.obj
 0001:000254c0       _glfwSetWindowTitle        004264c0 f   glfw3:window.obj
 0001:000254f0       _glfwSetWindowUserPointer  004264f0 f   glfw3:window.obj
 0001:00025530       _glfwShowWindow            00426530 f   glfw3:window.obj
 0001:00025590       _glfwWaitEvents            00426590 f   glfw3:window.obj
 0001:000255c0       _glfwWaitEventsTimeout     004265c0 f   glfw3:window.obj
 0001:00025650       _glfwWindowHint            00426650 f   glfw3:window.obj
 0001:00025a60       _glfwWindowHintString      00426a60 f   glfw3:window.obj
 0001:00025b20       _glfwWindowShouldClose     00426b20 f   glfw3:window.obj
 0001:00025b50       __glfwAllocJoystick        00426b50 f   glfw3:input.obj
 0001:00025d50       __glfwCenterCursorInContentArea 00426d50 f   glfw3:input.obj
 0001:00025dc0       __glfwFreeJoystick         00426dc0 f   glfw3:input.obj
 0001:00025e00       __glfwInputChar            00426e00 f   glfw3:input.obj
 0001:00025e70       __glfwInputCursorEnter     00426e70 f   glfw3:input.obj
 0001:00025e90       __glfwInputCursorPos       00426e90 f   glfw3:input.obj
 0001:00025f10       __glfwInputDrop            00426f10 f   glfw3:input.obj
 0001:00025f30       __glfwInputJoystick        00426f30 f   glfw3:input.obj
 0001:00025f80       __glfwInputJoystickAxis    00426f80 f   glfw3:input.obj
 0001:00025fa0       __glfwInputJoystickButton  00426fa0 f   glfw3:input.obj
 0001:00025fc0       __glfwInputJoystickHat     00426fc0 f   glfw3:input.obj
 0001:00026040       __glfwInputKey             00427040 f   glfw3:input.obj
 0001:000260d0       __glfwInputMouseClick      004270d0 f   glfw3:input.obj
 0001:00026130       __glfwInputScroll          00427130 f   glfw3:input.obj
 0001:00026310       _glfwCreateCursor          00427310 f   glfw3:input.obj
 0001:00026390       _glfwCreateStandardCursor  00427390 f   glfw3:input.obj
 0001:00026470       _glfwDestroyCursor         00427470 f   glfw3:input.obj
 0001:00026540       _glfwGetClipboardString    00427540 f   glfw3:input.obj
 0001:00026570       _glfwGetCursorPos          00427570 f   glfw3:input.obj
 0001:00026600       _glfwGetGamepadName        00427600 f   glfw3:input.obj
 0001:00026690       _glfwGetGamepadState       00427690 f   glfw3:input.obj
 0001:000269a0       _glfwGetInputMode          004279a0 f   glfw3:input.obj
 0001:00026a50       _glfwGetJoystickAxes       00427a50 f   glfw3:input.obj
 0001:00026af0       _glfwGetJoystickButtons    00427af0 f   glfw3:input.obj
 0001:00026ba0       _glfwGetJoystickGUID       00427ba0 f   glfw3:input.obj
 0001:00026c20       _glfwGetJoystickHats       00427c20 f   glfw3:input.obj
 0001:00026cc0       _glfwGetJoystickName       00427cc0 f   glfw3:input.obj
 0001:00026d40       _glfwGetJoystickUserPointer 00427d40 f   glfw3:input.obj
 0001:00026d80       _glfwGetKey                00427d80 f   glfw3:input.obj
 0001:00026e00       _glfwGetKeyName            00427e00 f   glfw3:input.obj
 0001:00026e90       _glfwGetKeyScancode        00427e90 f   glfw3:input.obj
 0001:00026ef0       _glfwGetMouseButton        00427ef0 f   glfw3:input.obj
 0001:00026f70       _glfwGetTime               00427f70 f   glfw3:input.obj
 0001:00026ff0       _glfwGetTimerFrequency     00427ff0 f   glfw3:input.obj
 0001:00027020       _glfwGetTimerValue         00428020 f   glfw3:input.obj
 0001:00027050       _glfwJoystickIsGamepad     00428050 f   glfw3:input.obj
 0001:000270e0       _glfwJoystickPresent       004280e0 f   glfw3:input.obj
 0001:00027150       _glfwRawMouseMotionSupported 00428150 f   glfw3:input.obj
 0001:00027180       _glfwSetCharCallback       00428180 f   glfw3:input.obj
 0001:000271c0       _glfwSetCharModsCallback   004281c0 f   glfw3:input.obj
 0001:00027200       _glfwSetClipboardString    00428200 f   glfw3:input.obj
 0001:00027240       _glfwSetCursor             00428240 f   glfw3:input.obj
 0001:00027290       _glfwSetCursorEnterCallback 00428290 f   glfw3:input.obj
 0001:000272d0       _glfwSetCursorPos          004282d0 f   glfw3:input.obj
 0001:000273f0       _glfwSetCursorPosCallback  004283f0 f   glfw3:input.obj
 0001:00027430       _glfwSetDropCallback       00428430 f   glfw3:input.obj
 0001:00027470       _glfwSetInputMode          00428470 f   glfw3:input.obj
 0001:00027650       _glfwSetJoystickCallback   00428650 f   glfw3:input.obj
 0001:00027690       _glfwSetJoystickUserPointer 00428690 f   glfw3:input.obj
 0001:000276e0       _glfwSetKeyCallback        004286e0 f   glfw3:input.obj
 0001:00027720       _glfwSetMouseButtonCallback 00428720 f   glfw3:input.obj
 0001:00027760       _glfwSetScrollCallback     00428760 f   glfw3:input.obj
 0001:000277a0       _glfwSetTime               004287a0 f   glfw3:input.obj
 0001:00027860       _glfwUpdateGamepadMappings 00428860 f   glfw3:input.obj
 0001:00028060       __glfwChooseFBConfig       00429060 f   glfw3:context.obj
 0001:000282c0       __glfwIsValidContextConfig 004292c0 f   glfw3:context.obj
 0001:00028550       __glfwRefreshContextAttribs 00429550 f   glfw3:context.obj
 0001:00028c00       __glfwStringInExtensionString 00429c00 f   glfw3:context.obj
 0001:00028c80       _glfwExtensionSupported    00429c80 f   glfw3:context.obj
 0001:00028e80       _glfwGetCurrentContext     00429e80 f   glfw3:context.obj
 0001:00028ec0       _glfwGetProcAddress        00429ec0 f   glfw3:context.obj
 0001:00028f30       _glfwMakeContextCurrent    00429f30 f   glfw3:context.obj
 0001:00028fe0       _glfwSwapBuffers           00429fe0 f   glfw3:context.obj
 0001:00029040       _glfwSwapInterval          0042a040 f   glfw3:context.obj
 0001:000290a0       _sscanf                    0042a0a0 f i glfw3:context.obj
 0001:000290d0       __glfwCreateUTF8FromWideStringWin32 0042a0d0 f   glfw3:win32_init.obj
 0001:00029180       __glfwCreateWideStringFromUTF8Win32 0042a180 f   glfw3:win32_init.obj
 0001:00029230       __glfwInputErrorWin32      0042a230 f   glfw3:win32_init.obj
 0001:00029320       __glfwIsWindows10BuildOrGreaterWin32 0042a320 f   glfw3:win32_init.obj
 0001:000293e0       __glfwIsWindowsVersionOrGreaterWin32 0042a3e0 f   glfw3:win32_init.obj
 0001:000294c0       __glfwPlatformGetVersionString 0042a4c0 f   glfw3:win32_init.obj
 0001:000294d0       __glfwPlatformInit         0042a4d0 f   glfw3:win32_init.obj
 0001:00029950       __glfwPlatformTerminate    0042a950 f   glfw3:win32_init.obj
 0001:00029a40       __glfwUpdateKeyNamesWin32  0042aa40 f   glfw3:win32_init.obj
 0001:0002a270       __glfwGetMonitorContentScaleWin32 0042b270 f   glfw3:win32_monitor.obj
 0001:0002a360       __glfwPlatformFreeMonitor  0042b360 f   glfw3:win32_monitor.obj
 0001:0002a370       __glfwPlatformGetGammaRamp 0042b370 f   glfw3:win32_monitor.obj
 0001:0002a430       __glfwPlatformGetMonitorContentScale 0042b430 f   glfw3:win32_monitor.obj
 0001:0002a520       __glfwPlatformGetMonitorPos 0042b520 f   glfw3:win32_monitor.obj
 0001:0002a5c0       __glfwPlatformGetMonitorWorkarea 0042b5c0 f   glfw3:win32_monitor.obj
 0001:0002a670       __glfwPlatformGetVideoMode 0042b670 f   glfw3:win32_monitor.obj
 0001:0002a720       __glfwPlatformGetVideoModes 0042b720 f   glfw3:win32_monitor.obj
 0001:0002aa00       __glfwPlatformSetGammaRamp 0042ba00 f   glfw3:win32_monitor.obj
 0001:0002aae0       __glfwPollMonitorsWin32    0042bae0 f   glfw3:win32_monitor.obj
 0001:0002aeb0       __glfwRestoreVideoModeWin32 0042beb0 f   glfw3:win32_monitor.obj
 0001:0002aef0       __glfwSetVideoModeWin32    0042bef0 f   glfw3:win32_monitor.obj
 0001:0002b3b0       _glfwGetWin32Adapter       0042c3b0 f   glfw3:win32_monitor.obj
 0001:0002b3f0       _glfwGetWin32Monitor       0042c3f0 f   glfw3:win32_monitor.obj
 0001:0002b500       __glfwInitTimerWin32       0042c500 f   glfw3:win32_time.obj
 0001:0002b570       __glfwPlatformGetTimerFrequency 0042c570 f   glfw3:win32_time.obj
 0001:0002b580       __glfwPlatformGetTimerValue 0042c580 f   glfw3:win32_time.obj
 0001:0002b5c0       __glfwPlatformCreateMutex  0042c5c0 f   glfw3:win32_thread.obj
 0001:0002b5f0       __glfwPlatformCreateTls    0042c5f0 f   glfw3:win32_thread.obj
 0001:0002b640       __glfwPlatformDestroyMutex 0042c640 f   glfw3:win32_thread.obj
 0001:0002b680       __glfwPlatformDestroyTls   0042c680 f   glfw3:win32_thread.obj
 0001:0002b6b0       __glfwPlatformGetTls       0042c6b0 f   glfw3:win32_thread.obj
 0001:0002b6d0       __glfwPlatformLockMutex    0042c6d0 f   glfw3:win32_thread.obj
 0001:0002b6f0       __glfwPlatformSetTls       0042c6f0 f   glfw3:win32_thread.obj
 0001:0002b710       __glfwPlatformUnlockMutex  0042c710 f   glfw3:win32_thread.obj
 0001:0002b730       __glfwAllocGammaArrays     0042c730 f   glfw3:monitor.obj
 0001:0002b780       __glfwAllocMonitor         0042c780 f   glfw3:monitor.obj
 0001:0002b7d0       __glfwChooseVideoMode      0042c7d0 f   glfw3:monitor.obj
 0001:0002b940       __glfwCompareVideoModes    0042c940 f   glfw3:monitor.obj
 0001:0002b950       __glfwFreeGammaArrays      0042c950 f   glfw3:monitor.obj
 0001:0002b990       __glfwFreeMonitor          0042c990 f   glfw3:monitor.obj
 0001:0002ba00       __glfwInputMonitor         0042ca00 f   glfw3:monitor.obj
 0001:0002bbf0       __glfwInputMonitorWindow   0042cbf0 f   glfw3:monitor.obj
 0001:0002bc10       __glfwSplitBPP             0042cc10 f   glfw3:monitor.obj
 0001:0002bcf0       _glfwGetGammaRamp          0042ccf0 f   glfw3:monitor.obj
 0001:0002bd60       _glfwGetMonitorContentScale 0042cd60 f   glfw3:monitor.obj
 0001:0002bdc0       _glfwGetMonitorName        0042cdc0 f   glfw3:monitor.obj
 0001:0002bdf0       _glfwGetMonitorPhysicalSize 0042cdf0 f   glfw3:monitor.obj
 0001:0002be60       _glfwGetMonitorPos         0042ce60 f   glfw3:monitor.obj
 0001:0002bec0       _glfwGetMonitorUserPointer 0042cec0 f   glfw3:monitor.obj
 0001:0002bef0       _glfwGetMonitorWorkarea    0042cef0 f   glfw3:monitor.obj
 0001:0002bf70       _glfwGetMonitors           0042cf70 f   glfw3:monitor.obj
 0001:0002bfc0       _glfwGetPrimaryMonitor     0042cfc0 f   glfw3:monitor.obj
 0001:0002c000       _glfwGetVideoMode          0042d000 f   glfw3:monitor.obj
 0001:0002c050       _glfwGetVideoModes         0042d050 f   glfw3:monitor.obj
 0001:0002c0b0       _glfwSetGamma              0042d0b0 f   glfw3:monitor.obj
 0001:0002c350       _glfwSetGammaRamp          0042d350 f   glfw3:monitor.obj
 0001:0002c3e0       _glfwSetMonitorCallback    0042d3e0 f   glfw3:monitor.obj
 0001:0002c420       _glfwSetMonitorUserPointer 0042d420 f   glfw3:monitor.obj
 0001:0002c4e0       __glfwGetVulkanResultString 0042d4e0 f   glfw3:vulkan.obj
 0001:0002c670       __glfwInitVulkan           0042d670 f   glfw3:vulkan.obj
 0001:0002c900       __glfwTerminateVulkan      0042d900 f   glfw3:vulkan.obj
 0001:0002c920       _glfwCreateWindowSurface   0042d920 f   glfw3:vulkan.obj
 0001:0002c9f0       _glfwGetInstanceProcAddress 0042d9f0 f   glfw3:vulkan.obj
 0001:0002ca60       _glfwGetPhysicalDevicePresentationSupport 0042da60 f   glfw3:vulkan.obj
 0001:0002cad0       _glfwGetRequiredInstanceExtensions 0042dad0 f   glfw3:vulkan.obj
 0001:0002cb40       _glfwVulkanSupported       0042db40 f   glfw3:vulkan.obj
 0001:0002cb70       __glfwPlatformCreateCursor 0042db70 f   glfw3:win32_window.obj
 0001:0002cba0       __glfwPlatformCreateStandardCursor 0042dba0 f   glfw3:win32_window.obj
 0001:0002cc60       __glfwPlatformCreateWindow 0042dc60 f   glfw3:win32_window.obj
 0001:0002cd70       __glfwPlatformCreateWindowSurface 0042dd70 f   glfw3:win32_window.obj
 0001:0002ce30       __glfwPlatformDestroyCursor 0042de30 f   glfw3:win32_window.obj
 0001:0002ce50       __glfwPlatformDestroyWindow 0042de50 f   glfw3:win32_window.obj
 0001:0002cf00       __glfwPlatformFocusWindow  0042df00 f   glfw3:win32_window.obj
 0001:0002cf40       __glfwPlatformFramebufferTransparent 0042df40 f   glfw3:win32_window.obj
 0001:0002cf90       __glfwPlatformGetClipboardString 0042df90 f   glfw3:win32_window.obj
 0001:0002d070       __glfwPlatformGetCursorPos 0042e070 f   glfw3:win32_window.obj
 0001:0002d0e0       __glfwPlatformGetFramebufferSize 0042e0e0 f   glfw3:win32_window.obj
 0001:0002d140       __glfwPlatformGetKeyScancode 0042e140 f   glfw3:win32_window.obj
 0001:0002d160       __glfwPlatformGetPhysicalDevicePresentationSupport 0042e160 f   glfw3:win32_window.obj
 0001:0002d1b0       __glfwPlatformGetRequiredInstanceExtensions 0042e1b0 f   glfw3:win32_window.obj
 0001:0002d1e0       __glfwPlatformGetScancodeName 0042e1e0 f   glfw3:win32_window.obj
 0001:0002d200       __glfwPlatformGetWindowContentScale 0042e200 f   glfw3:win32_window.obj
 0001:0002d230       __glfwPlatformGetWindowFrameSize 0042e230 f   glfw3:win32_window.obj
 0001:0002d3e0       __glfwPlatformGetWindowOpacity 0042e3e0 f   glfw3:win32_window.obj
 0001:0002d460       __glfwPlatformGetWindowPos 0042e460 f   glfw3:win32_window.obj
 0001:0002d4c0       __glfwPlatformGetWindowSize 0042e4c0 f   glfw3:win32_window.obj
 0001:0002d520       __glfwPlatformHideWindow   0042e520 f   glfw3:win32_window.obj
 0001:0002d540       __glfwPlatformIconifyWindow 0042e540 f   glfw3:win32_window.obj
 0001:0002d560       __glfwPlatformMaximizeWindow 0042e560 f   glfw3:win32_window.obj
 0001:0002d580       __glfwPlatformPollEvents   0042e580 f   glfw3:win32_window.obj
 0001:0002d770       __glfwPlatformPostEmptyEvent 0042e770 f   glfw3:win32_window.obj
 0001:0002d790       __glfwPlatformRawMouseMotionSupported 0042e790 f   glfw3:win32_window.obj
 0001:0002d7a0       __glfwPlatformRequestWindowAttention 0042e7a0 f   glfw3:win32_window.obj
 0001:0002d7c0       __glfwPlatformRestoreWindow 0042e7c0 f   glfw3:win32_window.obj
 0001:0002d7e0       __glfwPlatformSetClipboardString 0042e7e0 f   glfw3:win32_window.obj
 0001:0002d8d0       __glfwPlatformSetCursor    0042e8d0 f   glfw3:win32_window.obj
 0001:0002d940       __glfwPlatformSetCursorMode 0042e940 f   glfw3:win32_window.obj
 0001:0002d9b0       __glfwPlatformSetCursorPos 0042e9b0 f   glfw3:win32_window.obj
 0001:0002da00       __glfwPlatformSetRawMouseMotion 0042ea00 f   glfw3:win32_window.obj
 0001:0002da80       __glfwPlatformSetWindowAspectRatio 0042ea80 f   glfw3:win32_window.obj
 0001:0002db10       __glfwPlatformSetWindowDecorated 0042eb10 f   glfw3:win32_window.obj
 0001:0002db30       __glfwPlatformSetWindowFloating 0042eb30 f   glfw3:win32_window.obj
 0001:0002db70       __glfwPlatformSetWindowIcon 0042eb70 f   glfw3:win32_window.obj
 0001:0002dcb0       __glfwPlatformSetWindowMonitor 0042ecb0 f   glfw3:win32_window.obj
 0001:0002e070       __glfwPlatformSetWindowOpacity 0042f070 f   glfw3:win32_window.obj
 0001:0002e110       __glfwPlatformSetWindowPos 0042f110 f   glfw3:win32_window.obj
 0001:0002e260       __glfwPlatformSetWindowResizable 0042f260 f   glfw3:win32_window.obj
 0001:0002e280       __glfwPlatformSetWindowSize 0042f280 f   glfw3:win32_window.obj
 0001:0002e420       __glfwPlatformSetWindowSizeLimits 0042f420 f   glfw3:win32_window.obj
 0001:0002e4b0       __glfwPlatformSetWindowTitle 0042f4b0 f   glfw3:win32_window.obj
 0001:0002e4f0       __glfwPlatformShowWindow   0042f4f0 f   glfw3:win32_window.obj
 0001:0002e510       __glfwPlatformWaitEvents   0042f510 f   glfw3:win32_window.obj
 0001:0002e520       __glfwPlatformWaitEventsTimeout 0042f520 f   glfw3:win32_window.obj
 0001:0002e560       __glfwPlatformWindowFocused 0042f560 f   glfw3:win32_window.obj
 0001:0002e590       __glfwPlatformWindowHovered 0042f590 f   glfw3:win32_window.obj
 0001:0002e5a0       __glfwPlatformWindowIconified 0042f5a0 f   glfw3:win32_window.obj
 0001:0002e5c0       __glfwPlatformWindowMaximized 0042f5c0 f   glfw3:win32_window.obj
 0001:0002e5e0       __glfwPlatformWindowVisible 0042f5e0 f   glfw3:win32_window.obj
 0001:0002e600       __glfwRegisterWindowClassWin32 0042f600 f   glfw3:win32_window.obj
 0001:0002e700       __glfwUnregisterWindowClassWin32 0042f700 f   glfw3:win32_window.obj
 0001:0002f7b0       _glfwGetWin32Window        004307b0 f   glfw3:win32_window.obj
 0001:00030f50       __glfwDetectJoystickConnectionWin32 00431f50 f   glfw3:win32_joystick.obj
 0001:00031180       __glfwDetectJoystickDisconnectionWin32 00432180 f   glfw3:win32_joystick.obj
 0001:000312b0       __glfwInitJoysticksWin32   004322b0 f   glfw3:win32_joystick.obj
 0001:00031310       __glfwPlatformPollJoystick 00432310 f   glfw3:win32_joystick.obj
 0001:00031770       __glfwPlatformUpdateGamepadGUID 00432770 f   glfw3:win32_joystick.obj
 0001:00031810       __glfwTerminateJoysticksWin32 00432810 f   glfw3:win32_joystick.obj
 0001:00032280       _sprintf                   00433280 f i glfw3:win32_joystick.obj
 0001:000322c0       __glfwCreateContextWGL     004332c0 f   glfw3:wgl_context.obj
 0001:00032850       __glfwInitWGL              00433850 f   glfw3:wgl_context.obj
 0001:00032c40       __glfwTerminateWGL         00433c40 f   glfw3:wgl_context.obj
 0001:00033790       _glfwGetWGLContext         00434790 f   glfw3:wgl_context.obj
 0001:00033990       __glfwCreateContextEGL     00434990 f   glfw3:egl_context.obj
 0001:00033fd0       __glfwInitEGL              00434fd0 f   glfw3:egl_context.obj
 0001:00034480       __glfwTerminateEGL         00435480 f   glfw3:egl_context.obj
 0001:00034a00       _glfwGetEGLContext         00435a00 f   glfw3:egl_context.obj
 0001:00034a60       _glfwGetEGLDisplay         00435a60 f   glfw3:egl_context.obj
 0001:00034a90       _glfwGetEGLSurface         00435a90 f   glfw3:egl_context.obj
 0001:00034c20       __glfwCreateContextOSMesa  00435c20 f   glfw3:osmesa_context.obj
 0001:00034f00       __glfwInitOSMesa           00435f00 f   glfw3:osmesa_context.obj
 0001:000350f0       __glfwTerminateOSMesa      004360f0 f   glfw3:osmesa_context.obj
 0001:000351b0       _glfwGetOSMesaColorBuffer  004361b0 f   glfw3:osmesa_context.obj
 0001:00035270       _glfwGetOSMesaContext      00436270 f   glfw3:osmesa_context.obj
 0001:000352d0       _glfwGetOSMesaDepthBuffer  004362d0 f   glfw3:osmesa_context.obj
 0001:00035492       _DragQueryFileW@16         00436492 f   shell32:SHELL32.dll
 0001:00035498       _DragQueryPoint@8          00436498 f   shell32:SHELL32.dll
 0001:0003549e       _DragFinish@4              0043649e f   shell32:SHELL32.dll
 0001:000354a4       _DragAcceptFiles@8         004364a4 f   shell32:SHELL32.dll
 0001:000354aa       _TranslateMessage@4        004364aa f   user32:USER32.dll
 0001:000354b0       _DispatchMessageW@4        004364b0 f   user32:USER32.dll
 0001:000354b6       _PeekMessageW@20           004364b6 f   user32:USER32.dll
 0001:000354bc       _RegisterDeviceNotificationW@12 004364bc f   user32:USER32.dll
 0001:000354c2       _UnregisterDeviceNotification@4 004364c2 f   user32:USER32.dll
 0001:000354c8       _CreateWindowExW@48        004364c8 f   user32:USER32.dll
 0001:000354ce       _DestroyWindow@4           004364ce f   user32:USER32.dll
 0001:000354d4       _ShowWindow@8              004364d4 f   user32:USER32.dll
 0001:000354da       _ToUnicode@24              004364da f   user32:USER32.dll
 0001:000354e0       _MapVirtualKeyW@8          004364e0 f   user32:USER32.dll
 0001:000354e6       _SystemParametersInfoW@16  004364e6 f   user32:USER32.dll
 0001:000354ec       _GetDC@4                   004364ec f   user32:USER32.dll
 0001:000354f2       _ReleaseDC@8               004364f2 f   user32:USER32.dll
 0001:000354f8       _ChangeDisplaySettingsExW@20 004364f8 f   user32:USER32.dll
 0001:000354fe       _EnumDisplaySettingsW@12   004364fe f   user32:USER32.dll
 0001:00035504       _EnumDisplaySettingsExW@16 00436504 f   user32:USER32.dll
 0001:0003550a       _EnumDisplayDevicesW@16    0043650a f   user32:USER32.dll
 0001:00035510       _GetMonitorInfoW@8         00436510 f   user32:USER32.dll
 0001:00035516       _EnumDisplayMonitors@16    00436516 f   user32:USER32.dll
 0001:0003551c       _TrackMouseEvent@4         0043651c f   user32:USER32.dll
 0001:00035522       _GetMessageTime@0          00436522 f   user32:USER32.dll
 0001:00035528       _SendMessageW@16           00436528 f   user32:USER32.dll
 0001:0003552e       _PostMessageW@16           0043652e f   user32:USER32.dll
 0001:00035534       _WaitMessage@0             00436534 f   user32:USER32.dll
 0001:0003553a       _DefWindowProcW@16         0043653a f   user32:USER32.dll
 0001:00035540       _UnregisterClassW@8        00436540 f   user32:USER32.dll
 0001:00035546       _RegisterClassExW@4        00436546 f   user32:USER32.dll
 0001:0003554c       _GetLayeredWindowAttributes@16 0043654c f   user32:USER32.dll
 0001:00035552       _SetLayeredWindowAttributes@16 00436552 f   user32:USER32.dll
 0001:00035558       _FlashWindow@8             00436558 f   user32:USER32.dll
 0001:0003555e       _MoveWindow@24             0043655e f   user32:USER32.dll
 0001:00035564       _SetWindowPos@28           00436564 f   user32:USER32.dll
 0001:0003556a       _GetWindowPlacement@8      0043656a f   user32:USER32.dll
 0001:00035570       _SetWindowPlacement@8      00436570 f   user32:USER32.dll
 0001:00035576       _IsWindowVisible@4         00436576 f   user32:USER32.dll
 0001:0003557c       _IsIconic@4                0043657c f   user32:USER32.dll
 0001:00035582       _BringWindowToTop@4        00436582 f   user32:USER32.dll
 0001:00035588       _IsZoomed@4                00436588 f   user32:USER32.dll
 0001:0003558e       _OpenClipboard@4           0043658e f   user32:USER32.dll
 0001:00035594       _CloseClipboard@0          00436594 f   user32:USER32.dll
 0001:0003559a       _SetClipboardData@8        0043659a f   user32:USER32.dll
 0001:000355a0       _GetClipboardData@4        004365a0 f   user32:USER32.dll
 0001:000355a6       _EmptyClipboard@0          004365a6 f   user32:USER32.dll
 0001:000355ac       _SetFocus@4                004365ac f   user32:USER32.dll
 0001:000355b2       _GetActiveWindow@0         004365b2 f   user32:USER32.dll
 0001:000355b8       _GetKeyState@4             004365b8 f   user32:USER32.dll
 0001:000355be       _GetAsyncKeyState@4        004365be f   user32:USER32.dll
 0001:000355c4       _SetCapture@4              004365c4 f   user32:USER32.dll
 0001:000355ca       _ReleaseCapture@0          004365ca f   user32:USER32.dll
 0001:000355d0       _MsgWaitForMultipleObjects@20 004365d0 f   user32:USER32.dll
 0001:000355d6       _GetSystemMetrics@4        004365d6 f   user32:USER32.dll
 0001:000355dc       _SetForegroundWindow@4     004365dc f   user32:USER32.dll
 0001:000355e2       _RedrawWindow@16           004365e2 f   user32:USER32.dll
 0001:000355e8       _SetPropW@12               004365e8 f   user32:USER32.dll
 0001:000355ee       _GetPropW@8                004365ee f   user32:USER32.dll
 0001:000355f4       _RemovePropW@8             004365f4 f   user32:USER32.dll
 0001:000355fa       _SetWindowTextW@8          004365fa f   user32:USER32.dll
 0001:00035600       _GetClientRect@8           00436600 f   user32:USER32.dll
 0001:00035606       _GetWindowRect@8           00436606 f   user32:USER32.dll
 0001:0003560c       _AdjustWindowRectEx@16     0043660c f   user32:USER32.dll
 0001:00035612       _SetCursorPos@8            00436612 f   user32:USER32.dll
 0001:00035618       _SetCursor@4               00436618 f   user32:USER32.dll
 0001:0003561e       _GetCursorPos@4            0043661e f   user32:USER32.dll
 0001:00035624       _ClientToScreen@8          00436624 f   user32:USER32.dll
 0001:0003562a       _ScreenToClient@8          0043662a f   user32:USER32.dll
 0001:00035630       _WindowFromPoint@8         00436630 f   user32:USER32.dll
 0001:00035636       _ClipCursor@4              00436636 f   user32:USER32.dll
 0001:0003563c       _SetRect@20                0043663c f   user32:USER32.dll
 0001:00035642       _PtInRect@12               00436642 f   user32:USER32.dll
 0001:00035648       _GetWindowLongW@8          00436648 f   user32:USER32.dll
 0001:0003564e       _SetWindowLongW@12         0043664e f   user32:USER32.dll
 0001:00035654       _GetClassLongW@8           00436654 f   user32:USER32.dll
 0001:0003565a       _LoadCursorW@8             0043665a f   user32:USER32.dll
 0001:00035660       _DestroyIcon@4             00436660 f   user32:USER32.dll
 0001:00035666       _LoadImageW@24             00436666 f   user32:USER32.dll
 0001:0003566c       _CreateIconIndirect@4      0043666c f   user32:USER32.dll
 0001:00035672       _MonitorFromWindow@8       00436672 f   user32:USER32.dll
 0001:00035678       _GetRawInputData@20        00436678 f   user32:USER32.dll
 0001:0003567e       _RegisterRawInputDevices@12 0043667e f   user32:USER32.dll
 0001:00035684       _GetRawInputDeviceInfoA@16 00436684 f   user32:USER32.dll
 0001:0003568a       _GetRawInputDeviceList@12  0043668a f   user32:USER32.dll
 0001:00035690       _CreateDCW@16              00436690 f   gdi32:GDI32.dll
 0001:00035696       _DeleteDC@4                00436696 f   gdi32:GDI32.dll
 0001:0003569c       _GetDeviceCaps@8           0043669c f   gdi32:GDI32.dll
 0001:000356a2       _GetDeviceGammaRamp@8      004366a2 f   gdi32:GDI32.dll
 0001:000356a8       _SetDeviceGammaRamp@8      004366a8 f   gdi32:GDI32.dll
 0001:000356ae       _CreateBitmap@20           004366ae f   gdi32:GDI32.dll
 0001:000356b4       _CreateRectRgn@16          004366b4 f   gdi32:GDI32.dll
 0001:000356ba       _DeleteObject@4            004366ba f   gdi32:GDI32.dll
 0001:000356c0       _CreateDIBSection@24       004366c0 f   gdi32:GDI32.dll
 0001:000356c6       _ChoosePixelFormat@8       004366c6 f   gdi32:GDI32.dll
 0001:000356cc       _DescribePixelFormat@16    004366cc f   gdi32:GDI32.dll
 0001:000356d2       _SetPixelFormat@12         004366d2 f   gdi32:GDI32.dll
 0001:000356d8       _SwapBuffers@4             004366d8 f   gdi32:GDI32.dll
 0001:000356de       _FreeLibrary@4             004366de f   kernel32:KERNEL32.dll
 0001:000356e4       _GetProcAddress@8          004366e4 f   kernel32:KERNEL32.dll
 0001:000356ea       _LoadLibraryW@4            004366ea f   kernel32:KERNEL32.dll
 0001:000356f0       _VerSetConditionMask@16    004366f0 f   kernel32:KERNEL32.dll
 0001:000356f6       _GetLastError@0            004366f6 f   kernel32:KERNEL32.dll
 0001:000356fc       _GetModuleHandleW@4        004366fc f   kernel32:KERNEL32.dll
 0001:00035702       _LoadLibraryA@4            00436702 f   kernel32:KERNEL32.dll
 0001:00035708       _FormatMessageW@28         00436708 f   kernel32:KERNEL32.dll
 0001:0003570e       _MultiByteToWideChar@24    0043670e f   kernel32:KERNEL32.dll
 0001:00035714       _WideCharToMultiByte@32    00436714 f   kernel32:KERNEL32.dll
 0001:0003571a       _QueryPerformanceCounter@4 0043671a f   kernel32:KERNEL32.dll
 0001:00035720       _QueryPerformanceFrequency@4 00436720 f   kernel32:KERNEL32.dll
 0001:00035726       _InitializeCriticalSection@4 00436726 f   kernel32:KERNEL32.dll
 0001:0003572c       _EnterCriticalSection@4    0043672c f   kernel32:KERNEL32.dll
 0001:00035732       _LeaveCriticalSection@4    00436732 f   kernel32:KERNEL32.dll
 0001:00035738       _DeleteCriticalSection@4   00436738 f   kernel32:KERNEL32.dll
 0001:0003573e       _TlsAlloc@0                0043673e f   kernel32:KERNEL32.dll
 0001:00035744       _TlsGetValue@4             00436744 f   kernel32:KERNEL32.dll
 0001:0003574a       _TlsSetValue@8             0043674a f   kernel32:KERNEL32.dll
 0001:00035750       _TlsFree@4                 00436750 f   kernel32:KERNEL32.dll
 0001:00035756       _GlobalAlloc@8             00436756 f   kernel32:KERNEL32.dll
 0001:0003575c       _GlobalUnlock@4            0043675c f   kernel32:KERNEL32.dll
 0001:00035762       _GlobalLock@4              00436762 f   kernel32:KERNEL32.dll
 0001:00035768       _GlobalFree@4              00436768 f   kernel32:KERNEL32.dll
 0001:0003576e       _SetThreadExecutionState@4 0043676e f   kernel32:KERNEL32.dll
 0001:00035774       ?uncaught_exception@std@@YA_NXZ 00436774 f   msvcprt:MSVCP140.dll
 0001:0003577a       ?_Xbad_alloc@std@@YAXXZ    0043677a f   msvcprt:MSVCP140.dll
 0001:00035780       ?_Xlength_error@std@@YAXPBD@Z 00436780 f   msvcprt:MSVCP140.dll
 0001:00035786       ?_Xout_of_range@std@@YAXPBD@Z 00436786 f   msvcprt:MSVCP140.dll
 0001:0003578c       ?good@ios_base@std@@QBE_NXZ 0043678c f   msvcprt:MSVCP140.dll
 0001:00035792       ?flags@ios_base@std@@QBEHXZ 00436792 f   msvcprt:MSVCP140.dll
 0001:00035798       ?precision@ios_base@std@@QAE_J_J@Z 00436798 f   msvcprt:MSVCP140.dll
 0001:0003579e       ?width@ios_base@std@@QBE_JXZ 0043679e f   msvcprt:MSVCP140.dll
 0001:000357a4       ?width@ios_base@std@@QAE_J_J@Z 004367a4 f   msvcprt:MSVCP140.dll
 0001:000357aa       ?sputc@?$basic_streambuf@DU?$char_traits@D@std@@@std@@QAEHD@Z 004367aa f   msvcprt:MSVCP140.dll
 0001:000357b0       ?sputn@?$basic_streambuf@DU?$char_traits@D@std@@@std@@QAE_JPBD_J@Z 004367b0 f   msvcprt:MSVCP140.dll
 0001:000357b6       ?setstate@?$basic_ios@DU?$char_traits@D@std@@@std@@QAEXH_N@Z 004367b6 f   msvcprt:MSVCP140.dll
 0001:000357bc       ?tie@?$basic_ios@DU?$char_traits@D@std@@@std@@QBEPAV?$basic_ostream@DU?$char_traits@D@std@@@2@XZ 004367bc f   msvcprt:MSVCP140.dll
 0001:000357c2       ?rdbuf@?$basic_ios@DU?$char_traits@D@std@@@std@@QBEPAV?$basic_streambuf@DU?$char_traits@D@std@@@2@XZ 004367c2 f   msvcprt:MSVCP140.dll
 0001:000357c8       ?fill@?$basic_ios@DU?$char_traits@D@std@@@std@@QBEDXZ 004367c8 f   msvcprt:MSVCP140.dll
 0001:000357ce       ?widen@?$basic_ios@DU?$char_traits@D@std@@@std@@QBEDD@Z 004367ce f   msvcprt:MSVCP140.dll
 0001:000357d4       ?_Osfx@?$basic_ostream@DU?$char_traits@D@std@@@std@@QAEXXZ 004367d4 f   msvcprt:MSVCP140.dll
 0001:000357da       ??6?$basic_ostream@DU?$char_traits@D@std@@@std@@QAEAAV01@P6AAAV01@AAV01@@Z@Z 004367da f   msvcprt:MSVCP140.dll
 0001:000357e0       ??6?$basic_ostream@DU?$char_traits@D@std@@@std@@QAEAAV01@H@Z 004367e0 f   msvcprt:MSVCP140.dll
 0001:000357e6       ??6?$basic_ostream@DU?$char_traits@D@std@@@std@@QAEAAV01@M@Z 004367e6 f   msvcprt:MSVCP140.dll
 0001:000357ec       ?put@?$basic_ostream@DU?$char_traits@D@std@@@std@@QAEAAV12@D@Z 004367ec f   msvcprt:MSVCP140.dll
 0001:000357f2       ?flush@?$basic_ostream@DU?$char_traits@D@std@@@std@@QAEAAV12@XZ 004367f2 f   msvcprt:MSVCP140.dll
 0001:000357f8       ?_Random_device@std@@YAIXZ 004367f8 f   msvcprt:MSVCP140.dll
 0001:000357fe       ??2@YAPAXI@Z               004367fe f   MSVCRT:new_scalar.obj
 0001:0003583d       ??3@YAXPAX@Z               0043683d f   MSVCRT:delete_scalar.obj
 0001:00035842       ??$__crt_fast_decode_pointer@PAP6AXXZ@@YAPAP6AXXZQAP6AXXZ@Z 00436842 f i MSVCRT:utility.obj
 0001:0003585b       ??$__crt_fast_encode_pointer@PAP6AXXZ@@YAPAP6AXXZQAP6AXXZ@Z 0043685b f i MSVCRT:utility.obj
 0001:0003587f       ?__crt_rotate_pointer_value@@YAIIH@Z 0043687f f i MSVCRT:utility.obj
 0001:0003588f       ?configure_argv@__scrt_narrow_argv_policy@@SAHXZ 0043688f f i MSVCRT:utility.obj
 0001:00035933       _NtCurrentTeb              00436933 f i MSVCRT:utility.obj
 0001:0003593a       ___scrt_acquire_startup_lock 0043693a f   MSVCRT:utility.obj
 0001:0003597c       ___scrt_dllmain_after_initialize_c 0043697c f   MSVCRT:utility.obj
 0001:000359b1       ___scrt_dllmain_before_initialize_c 004369b1 f   MSVCRT:utility.obj
 0001:000359c2       ___scrt_dllmain_crt_thread_attach 004369c2 f   MSVCRT:utility.obj
 0001:000359e8       ___scrt_dllmain_crt_thread_detach 004369e8 f   MSVCRT:utility.obj
 0001:000359f8       ___scrt_dllmain_exception_filter 004369f8 f   MSVCRT:utility.obj
 0001:00035a37       ___scrt_dllmain_uninitialize_c 00436a37 f   MSVCRT:utility.obj
 0001:00035a62       ___scrt_dllmain_uninitialize_critical 00436a62 f   MSVCRT:utility.obj
 0001:00035a72       ___scrt_initialize_crt     00436a72 f   MSVCRT:utility.obj
 0001:00035ab9       ___scrt_initialize_onexit_tables 00436ab9 f   MSVCRT:utility.obj
 0001:00035b75       ___scrt_is_nonwritable_in_current_image 00436b75 f   MSVCRT:utility.obj
 0001:00035c21       ___scrt_release_startup_lock 00436c21 f   MSVCRT:utility.obj
 0001:00035c45       ___scrt_uninitialize_crt   00436c45 f   MSVCRT:utility.obj
 0001:00035c77       __onexit                   00436c77 f   MSVCRT:utility.obj
 0001:00035cc0       _at_quick_exit             00436cc0 f   MSVCRT:utility.obj
 0001:00035cfd       _atexit                    00436cfd f   MSVCRT:utility.obj
 0001:00035d17       @__security_check_cookie@4 00436d17 f   MSVCRT:_secchk_.obj
 0001:00035d30       __alloca_probe             00436d30 f   MSVCRT:chkstk.obj
 0001:00035d30       __chkstk                   00436d30 f   MSVCRT:chkstk.obj
 0001:00035d70       __ftol2_sse                00436d70 f   MSVCRT:_ftol2_.obj
 0001:00035d79       __ftol2_pentium4           00436d79 f   MSVCRT:_ftol2_.obj
 0001:00035d8c       __ftol2_sse_excpt          00436d8c f   MSVCRT:_ftol2_.obj
 0001:00035db0       __ftol2                    00436db0 f   MSVCRT:_ftol2_.obj
 0001:00036115       ?get_app_type@__scrt_main_policy@@SA?AW4_crt_app_type@@XZ 00437115 f i MSVCRT:exe_main.obj
 0001:0003614c       _mainCRTStartup            0043714c f   MSVCRT:exe_main.obj
 0001:00036160       __ftoui3                   00437160 f   MSVCRT:_ftol3_.obj
 0001:0003616f       __ftoul3                   0043716f f   MSVCRT:_ftol3_.obj
 0001:0003617e       __ftol3                    0043717e f   MSVCRT:_ftol3_.obj
 0001:0003618b       __ftol3_NaN                0043718b f   MSVCRT:_ftol3_.obj
 0001:000361a3       __ftol3_work               004371a3 f   MSVCRT:_ftol3_.obj
 0001:00036229       __ftol3_common             00437229 f   MSVCRT:_ftol3_.obj
 0001:000362eb       __ftol3_arg_error          004372eb f   MSVCRT:_ftol3_.obj
 0001:000362fd       __ftol3_except             004372fd f   MSVCRT:_ftol3_.obj
 0001:00036341       __dtoui3                   00437341 f   MSVCRT:_ftol3_.obj
 0001:00036350       __dtoul3                   00437350 f   MSVCRT:_ftol3_.obj
 0001:0003635f       __dtol3                    0043735f f   MSVCRT:_ftol3_.obj
 0001:0003636c       __dtol3_NaN                0043736c f   MSVCRT:_ftol3_.obj
 0001:00036389       __dtol3_work               00437389 f   MSVCRT:_ftol3_.obj
 0001:00036470       __ultod3                   00437470 f   MSVCRT:_ftol3_.obj
 0001:000364b0       __ltod3                    004374b0 f   MSVCRT:_ftol3_.obj
 0001:000365b4       ??0bad_alloc@std@@AAE@QBD@Z 004375b4 f i MSVCRT:throw_bad_alloc.obj
 0001:000365d8       ??0bad_alloc@std@@QAE@ABV01@@Z 004375d8 f i MSVCRT:throw_bad_alloc.obj
 0001:000365f9       ??0bad_alloc@std@@QAE@XZ   004375f9 f i MSVCRT:throw_bad_alloc.obj
 0001:00036617       ??0bad_array_new_length@std@@QAE@ABV01@@Z 00437617 f i MSVCRT:throw_bad_alloc.obj
 0001:00036638       ??0bad_array_new_length@std@@QAE@XZ 00437638 f i MSVCRT:throw_bad_alloc.obj
 0001:00036656       ??0exception@std@@QAE@ABV01@@Z 00437656 f i MSVCRT:throw_bad_alloc.obj
 0001:0003668d       ??0exception@std@@QAE@QBDH@Z 0043768d f i MSVCRT:throw_bad_alloc.obj
 0001:000366b1       ??1bad_alloc@std@@UAE@XZ   004376b1 f i MSVCRT:throw_bad_alloc.obj
 0001:000366c6       ??1bad_array_new_length@std@@UAE@XZ 004376c6 f i MSVCRT:throw_bad_alloc.obj
 0001:000366db       ??1exception@std@@UAE@XZ   004376db f i MSVCRT:throw_bad_alloc.obj
 0001:000366f0       ??_Gbad_alloc@std@@UAEPAXI@Z 004376f0 f i MSVCRT:throw_bad_alloc.obj
 0001:000366f0       ??_Ebad_alloc@std@@UAEPAXI@Z 004376f0 f i MSVCRT:throw_bad_alloc.obj
 0001:00036728       ??_Gbad_array_new_length@std@@UAEPAXI@Z 00437728 f i MSVCRT:throw_bad_alloc.obj
 0001:00036728       ??_Ebad_array_new_length@std@@UAEPAXI@Z 00437728 f i MSVCRT:throw_bad_alloc.obj
 0001:00036760       ??_Eexception@std@@UAEPAXI@Z 00437760 f i MSVCRT:throw_bad_alloc.obj
 0001:00036760       ??_Gexception@std@@UAEPAXI@Z 00437760 f i MSVCRT:throw_bad_alloc.obj
 0001:00036798       ?__scrt_throw_std_bad_alloc@@YAXXZ 00437798 f   MSVCRT:throw_bad_alloc.obj
 0001:000367bc       ?__scrt_throw_std_bad_array_new_length@@YAXXZ 004377bc f   MSVCRT:throw_bad_alloc.obj
 0001:000367e0       ?what@exception@std@@UBEPBDXZ 004377e0 f i MSVCRT:throw_bad_alloc.obj
 0001:000367f0       ___isa_available_init      004377f0 f   MSVCRT:_cpu_disp_.obj
 0001:000369f0       __get_startup_argv_mode    004379f0 f   MSVCRT:argv_mode.obj
 0001:000369f4       ___scrt_is_ucrt_dll_in_use 004379f4 f   MSVCRT:ucrt_detection.obj
 0001:00036a03       ___scrt_fastfail           00437a03 f   MSVCRT:utility_desktop.obj
 0001:00036b64       ___scrt_get_show_window_mode 00437b64 f   MSVCRT:utility_desktop.obj
 0001:00036ba3       ___scrt_initialize_winrt   00437ba3 f   MSVCRT:utility_desktop.obj
 0001:00036ba6       ___scrt_is_managed_app     00437ba6 f   MSVCRT:utility_desktop.obj
 0001:00036bfb       ___scrt_set_unhandled_exception_filter 00437bfb f   MSVCRT:utility_desktop.obj
 0001:00036c0a       ___scrt_unhandled_exception_filter@4 00437c0a f   MSVCRT:utility_desktop.obj
 0001:00036c5b       __crt_debugger_hook        00437c5b f   MSVCRT:utility_desktop.obj
 0001:00036c65       @_guard_check_icall@4      00437c65 f i MSVCRT:checkcfg.obj
 0001:00036c70       __SEH_prolog4              00437c70 f   MSVCRT:_sehprolg4_.obj
 0001:00036cb6       __SEH_epilog4              00437cb6 f   MSVCRT:_sehprolg4_.obj
 0001:00036ce1       __except_handler4          00437ce1 f   MSVCRT:_chandler4gs_.obj
 0001:00036d0c       ___raise_securityfailure   00437d0c f   MSVCRT:gs_report.obj
 0001:00036d3e       ___report_gsfailure        00437d3e f   MSVCRT:gs_report.obj
 0001:00036e77       ___report_rangecheckfailure 00437e77 f   MSVCRT:gs_report.obj
 0001:00036e86       ___report_securityfailure  00437e86 f   MSVCRT:gs_report.obj
 0001:00036f8a       ___report_securityfailureEx 00437f8a f   MSVCRT:gs_report.obj
 0001:000370e5       ___security_init_cookie    004380e5 f   MSVCRT:gs_support.obj
 0001:000371a8       __matherr                  004381a8 f   MSVCRT:matherr.obj
 0001:000371ab       __get_startup_commit_mode  004381ab f   MSVCRT:commit_mode.obj
 0001:000371ae       __get_startup_file_mode    004381ae f   MSVCRT:file_mode.obj
 0001:000371b4       __get_startup_new_mode     004381b4 f   MSVCRT:new_mode.obj
 0001:000371b7       __get_startup_thread_locale_mode 004381b7 f   MSVCRT:thread_locale.obj
 0001:000371ba       ?__scrt_initialize_type_info@@YAXXZ 004381ba f   MSVCRT:tncleanup.obj
 0001:000371c9       ?__scrt_uninitialize_type_info@@YAXXZ 004381c9 f   MSVCRT:tncleanup.obj
 0001:000371d8       __should_initialize_environment 004381d8 f   MSVCRT:env_mode.obj
 0001:000371db       __initialize_default_precision 004381db f   MSVCRT:default_precision.obj
 0001:00037204       __initialize_invalid_parameter_handler 00438204 f   MSVCRT:invalid_parameter_handler.obj
 0001:00037205       __initialize_denormal_control 00438205 f   MSVCRT:denormal_control.obj
 0001:00037206       ___scrt_initialize_default_local_stdio_options 00438206 f   MSVCRT:default_local_stdio_options.obj
 0001:0003722a       ___scrt_is_user_matherr_present 0043822a f   MSVCRT:matherr_detection.obj
 0001:00037239       ___scrt_get_dyn_tls_init_callback 00438239 f   MSVCRT:dyn_tls_init.obj
 0001:0003723f       ___scrt_get_dyn_tls_dtor_callback 0043823f f   MSVCRT:dyn_tls_dtor.obj
 0001:00037245       __RTC_Initialize           00438245 f   MSVCRT:_initsect_.obj
 0001:0003727a       __RTC_Terminate            0043827a f   MSVCRT:_initsect_.obj
 0001:000372af       ??3@YAXPAXI@Z              004382af f   MSVCRT:delete_scalar_size.obj
 0001:000372c0       ??1type_info@@UAE@XZ       004382c0 f   MSVCRT:std_type_info_static.obj
 0001:000372c7       ??_Etype_info@@UAEPAXI@Z   004382c7 f i MSVCRT:std_type_info_static.obj
 0001:000372c7       ??_Gtype_info@@UAEPAXI@Z   004382c7 f i MSVCRT:std_type_info_static.obj
 0001:000372f2       @_guard_check_icall_nop@4  004382f2 f i MSVCRT:guard_support.obj
 0001:000372f3       __guard_icall_checks_enforced 004382f3 f i MSVCRT:guard_support.obj
 0001:0003730a       _memmove                   0043830a f   vcruntime:VCRUNTIME140.dll
 0001:00037310       __CxxThrowException@8      00438310 f   vcruntime:VCRUNTIME140.dll
 0001:00037316       ___CxxFrameHandler3        00438316 f   vcruntime:VCRUNTIME140.dll
 0001:0003731c       _memcpy                    0043831c f   vcruntime:VCRUNTIME140.dll
 0001:00037322       _memset                    00438322 f   vcruntime:VCRUNTIME140.dll
 0001:00037328       _strstr                    00438328 f   vcruntime:VCRUNTIME140.dll
 0001:0003732e       ___std_exception_copy      0043832e f   vcruntime:VCRUNTIME140.dll
 0001:00037334       ___std_exception_destroy   00438334 f   vcruntime:VCRUNTIME140.dll
 0001:0003733a       __except_handler4_common   0043833a f   vcruntime:VCRUNTIME140.dll
 0001:00037340       ___std_type_info_destroy_list 00438340 f   vcruntime:VCRUNTIME140.dll
 0001:00037346       __invalid_parameter_noinfo_noreturn 00438346 f   ucrt:api-ms-win-crt-runtime-l1-1-0.dll
 0001:0003734c       _ldexp                     0043834c f   ucrt:api-ms-win-crt-math-l1-1-0.dll
 0001:00037352       _log2f                     00438352 f   ucrt:api-ms-win-crt-math-l1-1-0.dll
 0001:00037358       _free                      00438358 f   ucrt:api-ms-win-crt-heap-l1-1-0.dll
 0001:0003735e       _malloc                    0043835e f   ucrt:api-ms-win-crt-heap-l1-1-0.dll
 0001:00037364       _realloc                   00438364 f   ucrt:api-ms-win-crt-heap-l1-1-0.dll
 0001:0003736a       _strtol                    0043836a f   ucrt:api-ms-win-crt-convert-l1-1-0.dll
 0001:00037370       _fopen_s                   00438370 f   ucrt:api-ms-win-crt-stdio-l1-1-0.dll
 0001:00037376       _fclose                    00438376 f   ucrt:api-ms-win-crt-stdio-l1-1-0.dll
 0001:0003737c       _feof                      0043837c f   ucrt:api-ms-win-crt-stdio-l1-1-0.dll
 0001:00037382       _fread                     00438382 f   ucrt:api-ms-win-crt-stdio-l1-1-0.dll
 0001:00037388       _fseek                     00438388 f   ucrt:api-ms-win-crt-stdio-l1-1-0.dll
 0001:0003738e       _ftell                     0043838e f   ucrt:api-ms-win-crt-stdio-l1-1-0.dll
 0001:00037394       _strncmp                   00438394 f   ucrt:api-ms-win-crt-string-l1-1-0.dll
 0001:0003739a       __wassert                  0043839a f   ucrt:api-ms-win-crt-runtime-l1-1-0.dll
 0001:000373a0       __libm_sse2_cos_precise    004383a0 f   ucrt:api-ms-win-crt-math-l1-1-0.dll
 0001:000373a6       __libm_sse2_log_precise    004383a6 f   ucrt:api-ms-win-crt-math-l1-1-0.dll
 0001:000373ac       __libm_sse2_pow_precise    004383ac f   ucrt:api-ms-win-crt-math-l1-1-0.dll
 0001:000373b2       __libm_sse2_sin_precise    004383b2 f   ucrt:api-ms-win-crt-math-l1-1-0.dll
 0001:000373b8       __libm_sse2_sqrt_precise   004383b8 f   ucrt:api-ms-win-crt-math-l1-1-0.dll
 0001:000373be       _ceil                      004383be f   ucrt:api-ms-win-crt-math-l1-1-0.dll
 0001:000373c4       ___stdio_common_vsscanf    004383c4 f   ucrt:api-ms-win-crt-stdio-l1-1-0.dll
 0001:000373ca       _strlen                    004383ca f   ucrt:api-ms-win-crt-string-l1-1-0.dll
 0001:000373d0       _calloc                    004383d0 f   ucrt:api-ms-win-crt-heap-l1-1-0.dll
 0001:000373d6       ___stdio_common_vsprintf   004383d6 f   ucrt:api-ms-win-crt-stdio-l1-1-0.dll
 0001:000373dc       _strncpy                   004383dc f   ucrt:api-ms-win-crt-string-l1-1-0.dll
 0001:000373e2       _strcspn                   004383e2 f   ucrt:api-ms-win-crt-string-l1-1-0.dll
 0001:000373e8       _strspn                    004383e8 f   ucrt:api-ms-win-crt-string-l1-1-0.dll
 0001:000373ee       _strtoul                   004383ee f   ucrt:api-ms-win-crt-convert-l1-1-0.dll
 0001:000373f4       _qsort                     004383f4 f   ucrt:api-ms-win-crt-utility-l1-1-0.dll
 0001:000373fa       __callnewh                 004383fa f   ucrt:api-ms-win-crt-heap-l1-1-0.dll
 0001:00037400       __seh_filter_dll           00438400 f   ucrt:api-ms-win-crt-runtime-l1-1-0.dll
 0001:00037406       __configure_narrow_argv    00438406 f   ucrt:api-ms-win-crt-runtime-l1-1-0.dll
 0001:0003740c       __initialize_narrow_environment 0043840c f   ucrt:api-ms-win-crt-runtime-l1-1-0.dll
 0001:00037412       __initialize_onexit_table  00438412 f   ucrt:api-ms-win-crt-runtime-l1-1-0.dll
 0001:00037418       __register_onexit_function 00438418 f   ucrt:api-ms-win-crt-runtime-l1-1-0.dll
 0001:0003741e       __execute_onexit_table     0043841e f   ucrt:api-ms-win-crt-runtime-l1-1-0.dll
 0001:00037424       __crt_atexit               00438424 f   ucrt:api-ms-win-crt-runtime-l1-1-0.dll
 0001:0003742a       __crt_at_quick_exit        0043842a f   ucrt:api-ms-win-crt-runtime-l1-1-0.dll
 0001:00037430       __cexit                    00438430 f   ucrt:api-ms-win-crt-runtime-l1-1-0.dll
 0001:00037436       __seh_filter_exe           00438436 f   ucrt:api-ms-win-crt-runtime-l1-1-0.dll
 0001:0003743c       __set_app_type             0043843c f   ucrt:api-ms-win-crt-runtime-l1-1-0.dll
 0001:00037442       ___setusermatherr          00438442 f   ucrt:api-ms-win-crt-math-l1-1-0.dll
 0001:00037448       __get_initial_narrow_environment 00438448 f   ucrt:api-ms-win-crt-runtime-l1-1-0.dll
 0001:0003744e       __initterm                 0043844e f   ucrt:api-ms-win-crt-runtime-l1-1-0.dll
 0001:00037454       __initterm_e               00438454 f   ucrt:api-ms-win-crt-runtime-l1-1-0.dll
 0001:0003745a       _exit                      0043845a f   ucrt:api-ms-win-crt-runtime-l1-1-0.dll
 0001:00037460       __exit                     00438460 f   ucrt:api-ms-win-crt-runtime-l1-1-0.dll
 0001:00037466       __set_fmode                00438466 f   ucrt:api-ms-win-crt-stdio-l1-1-0.dll
 0001:0003746c       ___p___argc                0043846c f   ucrt:api-ms-win-crt-runtime-l1-1-0.dll
 0001:00037472       ___p___argv                00438472 f   ucrt:api-ms-win-crt-runtime-l1-1-0.dll
 0001:00037478       __c_exit                   00438478 f   ucrt:api-ms-win-crt-runtime-l1-1-0.dll
 0001:0003747e       __register_thread_local_exe_atexit_callback 0043847e f   ucrt:api-ms-win-crt-runtime-l1-1-0.dll
 0001:00037484       __configthreadlocale       00438484 f   ucrt:api-ms-win-crt-locale-l1-1-0.dll
 0001:0003748a       __set_new_mode             0043848a f   ucrt:api-ms-win-crt-heap-l1-1-0.dll
 0001:00037490       ___p__commode              00438490 f   ucrt:api-ms-win-crt-stdio-l1-1-0.dll
 0001:00037496       __except1                  00438496 f   ucrt:api-ms-win-crt-math-l1-1-0.dll
 0001:0003749c       _terminate                 0043849c f   ucrt:api-ms-win-crt-runtime-l1-1-0.dll
 0001:000374a2       __controlfp_s              004384a2 f   ucrt:api-ms-win-crt-runtime-l1-1-0.dll
 0001:000374a8       _IsProcessorFeaturePresent@4 004384a8 f   kernel32:KERNEL32.dll
 0001:000374ae       _IsDebuggerPresent@0       004384ae f   kernel32:KERNEL32.dll
 0001:000374b4       _UnhandledExceptionFilter@4 004384b4 f   kernel32:KERNEL32.dll
 0001:000374ba       _SetUnhandledExceptionFilter@4 004384ba f   kernel32:KERNEL32.dll
 0001:000374c0       _GetStartupInfoW@4         004384c0 f   kernel32:KERNEL32.dll
 0001:000374c6       _GetCurrentProcess@0       004384c6 f   kernel32:KERNEL32.dll
 0001:000374cc       _TerminateProcess@8        004384cc f   kernel32:KERNEL32.dll
 0001:000374d2       _GetCurrentProcessId@0     004384d2 f   kernel32:KERNEL32.dll
 0001:000374d8       _GetCurrentThreadId@0      004384d8 f   kernel32:KERNEL32.dll
 0001:000374de       _GetSystemTimeAsFileTime@4 004384de f   kernel32:KERNEL32.dll
 0001:000374e4       _InitializeSListHead@4     004384e4 f   kernel32:KERNEL32.dll
 0001:000374ea       ___scrt_stub_for_acrt_initialize 004384ea f   MSVCRT:ucrt_stubs.obj
 0001:000374ea       ___vcrt_initialize         004384ea f   MSVCRT:ucrt_stubs.obj
 0001:000374ea       ___acrt_initialize         004384ea f   MSVCRT:ucrt_stubs.obj
 0001:000374ed       ___vcrt_thread_attach      004384ed f   MSVCRT:ucrt_stubs.obj
 0001:000374ed       ___acrt_thread_attach      004384ed f   MSVCRT:ucrt_stubs.obj
 0001:000374ed       ___scrt_stub_for_acrt_thread_attach 004384ed f   MSVCRT:ucrt_stubs.obj
 0001:000374f0       ___scrt_stub_for_acrt_thread_detach 004384f0 f   MSVCRT:ucrt_stubs.obj
 0001:000374f0       ___vcrt_thread_detach      004384f0 f   MSVCRT:ucrt_stubs.obj
 0001:000374f0       ___acrt_thread_detach      004384f0 f   MSVCRT:ucrt_stubs.obj
 0001:000374f3       ___vcrt_uninitialize       004384f3 f   MSVCRT:ucrt_stubs.obj
 0001:000374f3       ___acrt_uninitialize       004384f3 f   MSVCRT:ucrt_stubs.obj
 0001:000374f3       ___scrt_stub_for_acrt_uninitialize 004384f3 f   MSVCRT:ucrt_stubs.obj
 0001:000374f6       ___vcrt_uninitialize_critical 004384f6 f   MSVCRT:ucrt_stubs.obj
 0001:000374f6       ___acrt_uninitialize_critical 004384f6 f   MSVCRT:ucrt_stubs.obj
 0001:000374f6       ___scrt_stub_for_acrt_uninitialize_critical 004384f6 f   MSVCRT:ucrt_stubs.obj
 0001:000374f9       ___scrt_stub_for_is_c_termination_complete 004384f9 f   MSVCRT:ucrt_stubs.obj
 0001:000374f9       __is_c_termination_complete 004384f9 f   MSVCRT:ucrt_stubs.obj
 0002:00000000       ___xc_a                    0043c000     MSVCRT:initializers.obj
 0002:00000314       ___xc_z                    0043c314     MSVCRT:initializers.obj
 0002:00000418       ___xi_a                    0043c418     MSVCRT:initializers.obj
 0002:00000724       ___xi_z                    0043c724     MSVCRT:initializers.obj
 0002:00000828       ___xp_a                    0043c828     MSVCRT:initializers.obj
 0002:0000092c       ___xp_z                    0043c92c     MSVCRT:initializers.obj
 0002:00000a30       ___xt_a                    0043ca30     MSVCRT:initializers.obj
 0002:00000b34       ___xt_z                    0043cb34     MSVCRT:initializers.obj
 0002:00003308       ?npos@?$basic_string@DU?$char_traits@D@std@@V?$allocator@D@2@@std@@2IB 0043f308     win32_main.obj
 0002:00003344       ??_C@_0BD@OLBABOEK@vector?$DMT?$DO?5too?5long?$AA@ 0043f344     win32_main.obj
 0002:0000335c       ??_C@_0BA@JFNIOLAK@string?5too?5long?$AA@ 0043f35c     win32_main.obj
 0002:00003370       ??_C@_0BI@CFPLBAOH@invalid?5string?5position?$AA@ 0043f370     win32_main.obj
 0002:0000338c       __real@00000000            0043f38c     win32_main.obj
 0002:00003390       __real@3c23d70a            0043f390     win32_main.obj
 0002:00003394       __real@3e4ccccd            0043f394     win32_main.obj
 0002:00003398       __real@3f000000            0043f398     win32_main.obj
 0002:0000339c       __real@3f666666            0043f39c     win32_main.obj
 0002:000033a0       __real@3f800000            0043f3a0     win32_main.obj
 0002:000033a8       __real@3ff0000000000000    0043f3a8     win32_main.obj
 0002:000033b4       __real@40000000            0043f3b4     win32_main.obj
 0002:000033b8       __real@40400000            0043f3b8     win32_main.obj
 0002:000033bc       __real@40800000            0043f3bc     win32_main.obj
 0002:000033c0       __real@40c90fdb            0043f3c0     win32_main.obj
 0002:000033c4       __real@41200000            0043f3c4     win32_main.obj
 0002:000033c8       __real@41c00000            0043f3c8     win32_main.obj
 0002:000033cc       __real@437f0000            0043f3cc     win32_main.obj
 0002:000033d0       __real@43960000            0043f3d0     win32_main.obj
 0002:000033d4       __real@44340000            0043f3d4     win32_main.obj
 0002:000033d8       __real@44a00000            0043f3d8     win32_main.obj
 0002:000033dc       __real@477fff00            0043f3dc     win32_main.obj
 0002:000033e0       __real@4f800000            0043f3e0     win32_main.obj
 0002:000033e4       __real@bf800000            0043f3e4     win32_main.obj
 0002:000033e8       __real@c000000000000000    0043f3e8     win32_main.obj
 0002:00003400       __xmm@00000200000002000000020000000200 0043f400     win32_main.obj
 0002:00003420       __xmm@00080008000800080008000800080008 0043f420     win32_main.obj
 0002:00003440       __xmm@00ff00ff00ff00ff00ff00ff00ff00ff 0043f440     win32_main.obj
 0002:00003460       __xmm@01010000010100000101000001010000 0043f460     win32_main.obj
 0002:00003480       __xmm@08a914e808a914e808a914e808a914e8 0043f480     win32_main.obj
 0002:000034a0       __xmm@11c8e09e11c8e09e11c8e09e11c8e09e 0043f4a0     win32_main.obj
 0002:000034c0       __xmm@11c8f9c311c8f9c311c8f9c311c8f9c3 0043f4c0     win32_main.obj
 0002:000034e0       __xmm@12d0046b12d0046b12d0046b12d0046b 0043f4e0     win32_main.obj
 0002:00003500       __xmm@166f166f166f166f166f166f166f166f 0043f500     win32_main.obj
 0002:00003520       __xmm@1c5a1c5a1c5a1c5a1c5a1c5a1c5a1c5a 0043f520     win32_main.obj
 0002:00003540       __xmm@41f00000000000000000000000000000 0043f540     win32_main.obj
 0002:00003560       __xmm@80808080808080808080808080808080 0043f560     win32_main.obj
 0002:00003580       __xmm@e09ee565e09ee565e09ee565e09ee565 0043f580     win32_main.obj
 0002:000035a0       __xmm@e9cf12d0e9cf12d0e9cf12d0e9cf12d0 0043f5a0     win32_main.obj
 0002:000035c0       __xmm@eb1a08a9eb1a08a9eb1a08a9eb1a08a9 0043f5c0     win32_main.obj
 0002:000035e0       __xmm@f493f493f493f493f493f493f493f493 0043f5e0     win32_main.obj
 0002:00003600       __xmm@f9c31a9df9c31a9df9c31a9df9c31a9d 0043f600     win32_main.obj
 0002:00003620       __xmm@fa7efa7efa7efa7efa7efa7efa7efa7e 0043f620     win32_main.obj
 0002:00003638       ??_C@_0GC@KIFEGHB@03000000fa2d0000010000000000000@ 0043f638     glfw3:init.obj
 0002:000036b0       ??_C@_0BBN@FMDJFAID@0300000002200000009000000000000@ 0043f6b0     glfw3:init.obj
 0002:00003808       ??_C@_0BBN@DDIMFOMP@0300000020380000090000000000000@ 0043f808     glfw3:init.obj
 0002:00003960       ??_C@_0KC@BDMHLJAH@0300000010280000090000000000000@ 0043f960     glfw3:init.obj
 0002:00003a28       ??_C@_0LK@IEAMBPJF@03000000a0050000323200000000000@ 0043fa28     glfw3:init.obj
 0002:00003b08       ??_C@_0BAP@JLLKEDGG@030000008f0e0000120000000000000@ 0043fb08     glfw3:init.obj
 0002:00003c50       ??_C@_0BCN@GIEEMMPB@03000000341a0000360800000000000@ 0043fc50     glfw3:init.obj
 0002:00003dc0       ??_C@_0JO@HBLEAOAI@03000000c0110000135200000000000@ 0043fdc0     glfw3:init.obj
 0002:00003e80       ??_C@_0BCL@HMJAKFPC@030000006b140000005500000000000@ 0043fe80     glfw3:init.obj
 0002:00003fe8       ??_C@_0BBL@EFBOJJAL@0300000066f70000050000000000000@ 0043ffe8     glfw3:init.obj
 0002:00004140       ??_C@_0BCF@BIADCONP@03000000d81d00000b0000000000000@ 00440140     glfw3:init.obj
 0002:000042a0       ??_C@_0BBH@EKFHCAMB@03000000e8200000605800000000000@ 004402a0     glfw3:init.obj
 0002:000043f0       ??_C@_0BBL@JOMIAFLN@030000005e0400008e0200000000000@ 004403f0     glfw3:init.obj
 0002:00004548       ??_C@_0PH@HDPKEOEB@0300000026090000888800000000000@ 00440548     glfw3:init.obj
 0002:00004670       ??_C@_0BCC@ICCBMGAM@03000000a306000022f600000000000@ 00440670     glfw3:init.obj
 0002:000047d0       ??_C@_0BAE@PFJOMAIP@03000000791d0000010300000000000@ 004407d0     glfw3:init.obj
 0002:00004908       ??_C@_0BBO@PKEFDNGG@030000004f04000023b300000000000@ 00440908     glfw3:init.obj
 0002:00004a60       ??_C@_0BAC@DNICHFEF@03000000341a0000010800000000000@ 00440a60     glfw3:init.obj
 0002:00004b98       ??_C@_0BDA@CMOFFENL@030000000d0f0000850000000000000@ 00440b98     glfw3:init.obj
 0002:00004d08       ??_C@_0BCJ@GDBCPJIF@030000000d0f0000840000000000000@ 00440d08     glfw3:init.obj
 0002:00004e70       ??_C@_0OH@FOPKIOOK@030000000d0f0000880000000000000@ 00440e70     glfw3:init.obj
 0002:00004f88       ??_C@_0OH@PKEJNDDF@030000000d0f0000870000000000000@ 00440f88     glfw3:init.obj
 0002:000050a0       ??_C@_0OD@GOLNACF@030000000d0f0000270000000000000@ 004410a0     glfw3:init.obj
 0002:000051b0       ??_C@_0OA@BPMCGMAH@78696e7075740300000000000000000@ 004411b0     glfw3:init.obj
 0002:000052c0       ??_C@_0OB@DOLNAILH@0300000026090000262500000000000@ 004412c0     glfw3:init.obj
 0002:000053d0       ??_C@_0BCE@HLGICLNK@030000008f0e00000d3100000000000@ 004413d0     glfw3:init.obj
 0002:00005530       ??_C@_0LK@DEPDOLNO@0300000028040000014000000000000@ 00441530     glfw3:init.obj
 0002:00005610       ??_C@_0BBL@BABJOOFG@03000000ffff0000000000000000000@ 00441610     glfw3:init.obj
 0002:00005768       ??_C@_0BBP@PMDLBCBI@0300000045130000001000000000000@ 00441768     glfw3:init.obj
 0002:000058c0       ??_C@_0BCB@CDNPOFJG@03000000341a0000030200000000000@ 004418c0     glfw3:init.obj
 0002:00005a20       ??_C@_0BDA@KMJLBBJI@030000000d0f0000490000000000000@ 00441a20     glfw3:init.obj
 0002:00005b90       ??_C@_0OJ@OOLHGLBN@03000000d8140000086200000000000@ 00441b90     glfw3:init.obj
 0002:00005ca8       ??_C@_0BBH@LKFOHLNE@030000000d0f00005f0000000000000@ 00441ca8     glfw3:init.obj
 0002:00005df8       ??_C@_0BBH@LCHOLIJA@030000000d0f00005e0000000000000@ 00441df8     glfw3:init.obj
 0002:00005f48       ??_C@_0OM@PAPEIDEH@030000000d0f0000400000000000000@ 00441f48     glfw3:init.obj
 0002:00006068       ??_C@_0BCE@JNCBHNAG@030000000d0f00006e0000000000000@ 00442068     glfw3:init.obj
 0002:000061c8       ??_C@_0BCE@LONHMMNE@030000000d0f0000660000000000000@ 004421c8     glfw3:init.obj
 0002:00006328       ??_C@_0BCC@ICCBFEBO@030000000d0f0000ee0000000000000@ 00442328     glfw3:init.obj
 0002:00006488       ??_C@_0BBP@MIJPCIGF@030000000d0f00004d0000000000000@ 00442488     glfw3:init.obj
 0002:000065e0       ??_C@_0MP@NNGGKFCK@0300000025090000001700000000000@ 004425e0     glfw3:init.obj
 0002:000066d8       ??_C@_0LL@KLNOPNHB@030000008f0e0000133000000000000@ 004426d8     glfw3:init.obj
 0002:000067b8       ??_C@_0BCD@KBOGKJIK@03000000d81d00000f0000000000000@ 004427b8     glfw3:init.obj
 0002:00006918       ??_C@_0BCE@PHFLGEEP@03000000d81d0000100000000000000@ 00442918     glfw3:init.obj
 0002:00006a78       ??_C@_0LN@ELDHBANA@0300000083050000602000000000000@ 00442a78     glfw3:init.obj
 0002:00006b60       ??_C@_0OI@PJKINAML@03000000b5070000140300000000000@ 00442b60     glfw3:init.obj
 0002:00006c78       ??_C@_0OO@JIILGAHM@030000006f0e0000240100000000000@ 00442c78     glfw3:init.obj
 0002:00006d98       ??_C@_0BBK@GEMHLGCN@0300000049190000020400000000000@ 00442d98     glfw3:init.obj
 0002:00006ef0       ??_C@_0BBF@GOLEDGAH@030000006d04000011c200000000000@ 00442ef0     glfw3:init.obj
 0002:00007040       ??_C@_0BBP@NCCKJBD@030000006d04000016c200000000000@ 00443040     glfw3:init.obj
 0002:00007198       ??_C@_0BCA@IDEGIHPL@030000006d04000018c200000000000@ 00443198     glfw3:init.obj
 0002:000072f8       ??_C@_0BCA@PDBJCLJJ@030000006d04000019c200000000000@ 004432f8     glfw3:init.obj
 0002:00007458       ??_C@_0BDA@PJFOCFDI@0300000038070000503200000000000@ 00443458     glfw3:init.obj
 0002:000075c8       ??_C@_0BDA@HBJEDFJC@0300000038070000508200000000000@ 004435c8     glfw3:init.obj
 0002:00007738       ??_C@_0OP@DKGLPNPK@0300000038070000843300000000000@ 00443738     glfw3:init.obj
 0002:00007858       ??_C@_0BDC@MKHPLOHI@0300000038070000848300000000000@ 00443858     glfw3:init.obj
 0002:000079c8       ??_C@_0BDB@PPKHIPGK@0300000038070000813400000000000@ 004439c8     glfw3:init.obj
 0002:00007b38       ??_C@_0BDB@OHAMDKML@0300000038070000818400000000000@ 00443b38     glfw3:init.obj
 0002:00007ca8       ??_C@_0BBD@FGLPEKLC@0300000038070000803400000000000@ 00443ca8     glfw3:init.obj
 0002:00007df8       ??_C@_0BBD@GHNGPLFD@0300000038070000808400000000000@ 00443df8     glfw3:init.obj
 0002:00007f48       ??_C@_0BBK@FBBILDLI@0300000038070000853200000000000@ 00443f48     glfw3:init.obj
 0002:000080a0       ??_C@_0BBL@JKCMMIPG@0300000038070000388800000000000@ 004440a0     glfw3:init.obj
 0002:000081f8       ??_C@_0BBD@LABNEKLL@0300000038070000188800000000000@ 004441f8     glfw3:init.obj
 0002:00008348       ??_C@_0BBP@KNBKPMNJ@0300000038070000808100000000000@ 00444348     glfw3:init.obj
 0002:000084a0       ??_C@_0BBJ@JDAOMACH@030000008305000031b000000000000@ 004444a0     glfw3:init.obj
 0002:000085f8       ??_C@_0MA@LPHGGGL@0300000025090000012800000000000@ 004445f8     glfw3:init.obj
 0002:000086e0       ??_C@_0PC@EBDFKGFN@0300000079000000441800000000000@ 004446e0     glfw3:init.obj
 0002:00008808       ??_C@_0BDG@JHAIGEPC@0300000079000000431800000000000@ 00444808     glfw3:init.obj
 0002:00008980       ??_C@_0PI@JHAKKPHF@030000008f0e0000103000000000000@ 00444980     glfw3:init.obj
 0002:00008ab0       ??_C@_0BBD@DBNHIIMF@0300000025090000e80300000000000@ 00444ab0     glfw3:init.obj
 0002:00008c00       ??_C@_0BDN@CCAJAJCK@0300000079000000001800000000000@ 00444c00     glfw3:init.obj
 0002:00008d80       ??_C@_0LJ@GGIFBABN@030000001008000001e500000000000@ 00444d80     glfw3:init.obj
 0002:00008e60       ??_C@_0MA@ECCMLEBD@03000000bd12000015d000000000000@ 00444e60     glfw3:init.obj
 0002:00008f48       ??_C@_0BDD@DODHFLKI@030000007e050000092000000000000@ 00444f48     glfw3:init.obj
 0002:000090b8       ??_C@_0BCH@DECMPLLD@030000004b120000014d00000000000@ 004450b8     glfw3:init.obj
 0002:00009220       ??_C@_0BBB@PJOPHLEI@0300000036280000010000000000000@ 00445220     glfw3:init.obj
 0002:00009368       ??_C@_0OC@FELEMKIB@03000000120c0000f60e00000000000@ 00445368     glfw3:init.obj
 0002:00009478       ??_C@_0BBJ@KBEDPJIE@030000008f0e0000030000000000000@ 00445478     glfw3:init.obj
 0002:000095d0       ??_C@_0BCC@FJIJNHMA@03000000d62000006dca00000000000@ 004455d0     glfw3:init.obj
 0002:00009730       ??_C@_0BBO@DLNBHCGB@030000008f0e0000753000000000000@ 00445730     glfw3:init.obj
 0002:00009888       ??_C@_0BCC@CJMNKOGI@03000000e3050000960500000000000@ 00445888     glfw3:init.obj
 0002:000099e8       ??_C@_0BBC@EEECNPCM@0300000010080000010000000000000@ 004459e8     glfw3:init.obj
 0002:00009b30       ??_C@_0BBC@NOMIFJEF@0300000010080000030000000000000@ 00445b30     glfw3:init.obj
 0002:00009c78       ??_C@_0BCD@DJDMNCGP@0300000088880000080300000000000@ 00445c78     glfw3:init.obj
 0002:00009dd8       ??_C@_0BBP@IOECCAGN@030000004c050000680200000000000@ 00445dd8     glfw3:init.obj
 0002:00009f30       ??_C@_0BBI@KAHKIEPM@0300000025090000050000000000000@ 00445f30     glfw3:init.obj
 0002:0000a080       ??_C@_0OJ@KFMPHKBC@0300000010000000820000000000000@ 00446080     glfw3:init.obj
 0002:0000a198       ??_C@_0BCD@JIBGPOCI@030000004c050000a00b00000000000@ 00446198     glfw3:init.obj
 0002:0000a2f8       ??_C@_0BCD@GAJAFIPA@030000004c050000c40500000000000@ 004462f8     glfw3:init.obj
 0002:0000a458       ??_C@_0BCD@BABDCDPH@030000004c050000cc0900000000000@ 00446458     glfw3:init.obj
 0002:0000a5b8       ??_C@_0PF@JBCCEDOB@03000000300f0000001100000000000@ 004465b8     glfw3:init.obj
 0002:0000a6e0       ??_C@_0OM@HGBIMFGF@03000000300f0000161100000000000@ 004466e0     glfw3:init.obj
 0002:0000a800       ??_C@_0ON@KEJKIAHI@03000000222c0000002000000000000@ 00446800     glfw3:init.obj
 0002:0000a920       ??_C@_0LE@DMNOHJBL@03000000300f0000121000000000000@ 00446920     glfw3:init.obj
 0002:0000a9f8       ??_C@_0PI@OKGGAFMJ@03000000341a0000010400000000000@ 004469f8     glfw3:init.obj
 0002:0000ab28       ??_C@_0BDM@IEGKPAEF@03000000222c0000022300000000000@ 00446b28     glfw3:init.obj
 0002:0000aca8       ??_C@_0BDN@OKDOLNP@03000000222c0000002300000000000@ 00446ca8     glfw3:init.obj
 0002:0000ae28       ??_C@_0BAF@EBPNLKIJ@0300000032150000000300000000000@ 00446e28     glfw3:init.obj
 0002:0000af68       ??_C@_0BAA@HNPCOCLG@030000000d0f0000110000000000000@ 00446f68     glfw3:init.obj
 0002:0000b0a0       ??_C@_0BCG@KCOGNPFA@030000000d0f00008b0000000000000@ 004470a0     glfw3:init.obj
 0002:0000b200       ??_C@_0BCG@NPOEDNBE@030000000d0f00008a0000000000000@ 00447200     glfw3:init.obj
 0002:0000b360       ??_C@_0BCG@OOIEPIIL@030000000d0f00006b0000000000000@ 00447360     glfw3:init.obj
 0002:0000b4c0       ??_C@_0BCG@JDIGBKMP@030000000d0f00006a0000000000000@ 004474c0     glfw3:init.obj
 0002:0000b620       ??_C@_0BAE@KADGKHDN@030000000d0f0000700000000000000@ 00447620     glfw3:init.obj
 0002:0000b758       ??_C@_0BAK@PBDFELHA@030000000d0f0000220000000000000@ 00447758     glfw3:init.obj
 0002:0000b898       ??_C@_0BCH@HONEFEFO@030000000d0f00005c0000000000000@ 00447898     glfw3:init.obj
 0002:0000ba00       ??_C@_0BCH@KGOLOPPA@030000000d0f00005b0000000000000@ 00447a00     glfw3:init.obj
 0002:0000bb68       ??_C@_0LO@EDCIDLIK@0300000079000000110000000000000@ 00447b68     glfw3:init.obj
 0002:0000bc50       ??_C@_0KB@CIFFNJNE@0300000000f00000030000000000000@ 00447c50     glfw3:init.obj
 0002:0000bd18       ??_C@_0KI@EPMKBGDM@0300000000f00000f10000000000000@ 00447d18     glfw3:init.obj
 0002:0000bde8       ??_C@_0BCO@NGLDHPOC@030000006b140000010d00000000000@ 00447de8     glfw3:init.obj
 0002:0000bf58       ??_C@_0BCP@MOKGLCJ@030000006f0e00001e0100000000000@ 00447f58     glfw3:init.obj
 0002:0000c0c8       ??_C@_0BBP@LNLJDDIF@030000004f04000003d000000000000@ 004480c8     glfw3:init.obj
 0002:0000c220       ??_C@_0BBI@BAKFEMPI@03000000a30600001af500000000000@ 00448220     glfw3:init.obj
 0002:0000c370       ??_C@_0BCP@HPMIMEAF@03000000a306000023f600000000000@ 00448370     glfw3:init.obj
 0002:0000c4e0       ??_C@_0BCB@EEEEOCLB@03000000300f0000120100000000000@ 004484e0     glfw3:init.obj
 0002:0000c640       ??_C@_0BCI@FCHAMOBL@03000000a30600000cff00000000000@ 00448640     glfw3:init.obj
 0002:0000c7a8       ??_C@_0BCB@GBOFCHI@03000000a30600000c0400000000000@ 004487a8     glfw3:init.obj
 0002:0000c908       ??_C@_0BCB@OOEANFEH@03000000300f0000100100000000000@ 00448908     glfw3:init.obj
 0002:0000ca68       ??_C@_0BCA@LOJNHICN@03000000a30600000b0400000000000@ 00448a68     glfw3:init.obj
 0002:0000cbc8       ??_C@_0BCG@LIMAPBKF@03000000a30600000b0400000001000@ 00448bc8     glfw3:init.obj
 0002:0000cd28       ??_C@_0BBN@JLAHEEFD@03000000300f0000110100000000000@ 00448d28     glfw3:init.obj
 0002:0000ce80       ??_C@_0LF@DNFJHMLL@0300000000050000289b00000000000@ 00448e80     glfw3:init.obj
 0002:0000cf60       ??_C@_0LF@CJKOEMML@030000009b280000050000000000000@ 00448f60     glfw3:init.obj
 0002:0000d040       ??_C@_0BBF@IGGJOAJN@03000000341a0000020800000000000@ 00449040     glfw3:init.obj
 0002:0000d190       ??_C@_0BCH@KBLGLPFO@030000008f0e0000080000000000000@ 00449190     glfw3:init.obj
 0002:0000d2f8       ??_C@_0PI@MHCFEKFM@03000000ff110000313300000000000@ 004492f8     glfw3:init.obj
 0002:0000d428       ??_C@_0BBB@HMBGBDKD@03000000fa190000070600000000000@ 00449428     glfw3:init.obj
 0002:0000d570       ??_C@_0BBO@FCIHICKG@03000000b5070000120300000000000@ 00449570     glfw3:init.obj
 0002:0000d6c8       ??_C@_0BCF@HOCGGOLH@030000004f04000015b300000000000@ 004496c8     glfw3:init.obj
 0002:0000d828       ??_C@_0BDG@FAKOKHMO@030000004f04000000b300000000000@ 00449828     glfw3:init.obj
 0002:0000d9a0       ??_C@_0BCO@GFHGFBHD@030000004f04000004b300000000000@ 004499a0     glfw3:init.obj
 0002:0000db10       ??_C@_0BCP@ONIMJMJ@0300000066660000048800000000000@ 00449b10     glfw3:init.obj
 0002:0000dc80       ??_C@_0BBI@IMFOKND@03000000d9040000020000000000000@ 00449c80     glfw3:init.obj
 0002:0000ddd0       ??_C@_0BBM@HCDMAOKG@0300000038070000665200000000000@ 00449dd0     glfw3:init.obj
 0002:0000df28       ??_C@_0BCG@JCENNNEN@0300000063250000230500000000000@ 00449f28     glfw3:init.obj
 0002:0000e088       ??_C@_0OH@IPHKKKC@03000000790000001b1800000000000@ 0044a088     glfw3:init.obj
 0002:0000e1a0       ??_C@_0BCC@FCCEALDM@03000000450c0000204300000000000@ 0044a1a0     glfw3:init.obj
 0002:0000e300       ??_C@_0BCN@JLGOFCN@0300000017270000443100000000000@ 0044a300     glfw3:init.obj
 0002:0000e470       ??_C@_0BCE@MNGEPDHI@03000000786901006e7000000000000@ 0044a470     glfw3:init.obj
 0002:0000e5d0       ??_C@_0BBO@KEHJJI@0300000020380000090000000001000@ 0044a5d0     glfw3:init.obj
 0002:0000e728       ??_C@_0BBO@FFLNCONJ@0300000002200000009000000100000@ 0044a728     glfw3:init.obj
 0002:0000e880       ??_C@_0KM@JJPDJFIO@0300000010280000090000000000000@ 0044a880     glfw3:init.obj
 0002:0000e950       ??_C@_0LL@DGCKBEJD@03000000a0050000323200000801000@ 0044a950     glfw3:init.obj
 0002:0000ea30       ??_C@_0BBI@LFALHIDI@030000008305000031b000000000000@ 0044aa30     glfw3:init.obj
 0002:0000eb80       ??_C@_0PI@PKAABFLP@0300000026090000888800008802000@ 0044ab80     glfw3:init.obj
 0002:0000ecb0       ??_C@_0BCN@GGIJABAL@03000000a306000022f600000103000@ 0044acb0     glfw3:init.obj
 0002:0000ee20       ??_C@_0BCP@BOKNKFAN@03000000ad1b000001f900000000000@ 0044ae20     glfw3:init.obj
 0002:0000ef90       ??_C@_0BBM@FABKDNIJ@0500000047532047616d65706164000@ 0044af90     glfw3:init.obj
 0002:0000f0e8       ??_C@_0BBI@HFDFPBLC@030000000d0f00005f0000000001000@ 0044b0e8     glfw3:init.obj
 0002:0000f238       ??_C@_0BBI@EIMFEPI@030000000d0f00005e0000000001000@ 0044b238     glfw3:init.obj
 0002:0000f388       ??_C@_0BDD@JHJMHIEF@030000000d0f00005f0000000000000@ 0044b388     glfw3:init.obj
 0002:0000f4f8       ??_C@_0BDD@IGLAPCDD@030000000d0f00005e0000000000000@ 0044b4f8     glfw3:init.obj
 0002:0000f668       ??_C@_0BCE@FGGGEOAO@030000000d0f00004d0000000000000@ 0044b668     glfw3:init.obj
 0002:0000f7c8       ??_C@_0BCF@DJJAGGNO@030000000d0f00006e0000000001000@ 0044b7c8     glfw3:init.obj
 0002:0000f928       ??_C@_0BCF@FBGOCDJH@030000000d0f0000660000000001000@ 0044b928     glfw3:init.obj
 0002:0000fa88       ??_C@_0BCI@LLHBIGCM@030000000d0f0000660000000000000@ 0044ba88     glfw3:init.obj
 0002:0000fbf0       ??_C@_0MA@POCHILFA@030000008f0e0000133000001101000@ 0044bbf0     glfw3:init.obj
 0002:0000fcd8       ??_C@_0LO@FPEHDPEM@0300000083050000602000000001000@ 0044bcd8     glfw3:init.obj
 0002:0000fdc0       ??_C@_0LB@OEDBDJLN@0300000083050000602000000000000@ 0044bdc0     glfw3:init.obj
 0002:0000fe98       ??_C@_0BCA@NIBPGNBN@030000006d04000016c200000002000@ 0044be98     glfw3:init.obj
 0002:0000fff8       ??_C@_0BCA@OGANNCCH@030000006d04000016c200000003000@ 0044bff8     glfw3:init.obj
 0002:00010158       ??_C@_0BCA@MHMEHDFP@030000006d04000016c200001404000@ 0044c158     glfw3:init.obj
 0002:000102b8       ??_C@_0BCK@NFPNBBGL@030000006d04000016c200000000000@ 0044c2b8     glfw3:init.obj
 0002:00010420       ??_C@_0BCK@BJFGIGJE@030000006d04000018c200000000000@ 0044c420     glfw3:init.obj
 0002:00010588       ??_C@_0BCO@PCHLJLMH@030000006d0400001fc200000000000@ 0044c588     glfw3:init.obj
 0002:000106f8       ??_C@_0BCO@BCABGFMI@030000006d04000019c200000000000@ 0044c6f8     glfw3:init.obj
 0002:00010868       ??_C@_0BDB@KMAKBCLM@0300000038070000503200000001000@ 0044c868     glfw3:init.obj
 0002:000109d8       ??_C@_0BDB@JKIBJCFK@0300000038070000508200000001000@ 0044c9d8     glfw3:init.obj
 0002:00010b48       ??_C@_0OP@OEFNKJH@0300000079000000441800000001000@ 0044cb48     glfw3:init.obj
 0002:00010c68       ??_C@_0BBE@MLLGJBKJ@0300000025090000e80300000000000@ 0044cc68     glfw3:init.obj
 0002:00010db8       ??_C@_0BEG@EJMIOODK@0300000079000000001800000000000@ 0044cdb8     glfw3:init.obj
 0002:00010f40       ??_C@_0ND@PBMAPEC@03000000d8140000cecf00000000000@ 0044cf40     glfw3:init.obj
 0002:00011040       ??_C@_0LK@EONCFH@030000001008000001e500000601000@ 0044d040     glfw3:init.obj
 0002:00011120       ??_C@_0BDE@PILKGMJP@030000007e050000092000000000000@ 0044d120     glfw3:init.obj
 0002:00011298       ??_C@_0BBK@MKPNHENO@030000008f0e0000030000000000000@ 0044d298     glfw3:init.obj
 0002:000113f0       ??_C@_0BCA@CNBGJAOB@030000004c050000680200000001000@ 0044d3f0     glfw3:init.obj
 0002:00011550       ??_C@_0BCA@BDAECPNL@030000004c050000680200000000000@ 0044d550     glfw3:init.obj
 0002:000116b0       ??_C@_0BCE@PNKFACIK@030000004c050000a00b00000001000@ 0044d6b0     glfw3:init.obj
 0002:00011810       ??_C@_0BCE@OLEBMIBC@030000004c050000cc0900000001000@ 0044d810     glfw3:init.obj
 0002:00011970       ??_C@_0BCE@JNFEBCFK@030000004c050000c40500000000000@ 0044d970     glfw3:init.obj
 0002:00011ad0       ??_C@_0BCE@HFFFNOMK@030000004c050000c40500000001000@ 0044dad0     glfw3:init.obj
 0002:00011c30       ??_C@_0BBN@BGOOEGFK@030000008916000000fd00000000000@ 0044dc30     glfw3:init.obj
 0002:00011d88       ??_C@_0BCB@NOBGJFAM@0300000032150000001000000001000@ 0044dd88     glfw3:init.obj
 0002:00011ee8       ??_C@_0BBN@MMPLBLJD@0300000032150000030a00000000000@ 0044dee8     glfw3:init.obj
 0002:00012040       ??_C@_0KJ@LPEGFINE@0300000079000000110000000000000@ 0044e040     glfw3:init.obj
 0002:00012110       ??_C@_0LP@NHDHAKJG@0300000079000000110000000601000@ 0044e110     glfw3:init.obj
 0002:000121f8       ??_C@_0BCP@JCIBHFNJ@030000006b140000010d00000001000@ 0044e1f8     glfw3:init.obj
 0002:00012368       ??_C@_0NL@BDDOKBNO@03000000811700007e0500000000000@ 0044e368     glfw3:init.obj
 0002:00012470       ??_C@_0KN@HDHEFAON@03000000b40400000a0100000000000@ 0044e470     glfw3:init.obj
 0002:00012540       ??_C@_0JN@HKCNMPIP@030000003512000021ab00000000000@ 0044e540     glfw3:init.obj
 0002:00012600       ??_C@_0BCK@ECOEHMCF@030000004c050000cc0900000000000@ 0044e600     glfw3:init.obj
 0002:00012768       ??_C@_0BDI@DKEINFDE@030000004c050000a00b00000000000@ 0044e768     glfw3:init.obj
 0002:000128e0       ??_C@_0BBL@DAAIFGAP@030000005e0400008e0200000100000@ 0044e8e0     glfw3:init.obj
 0002:00012a38       ??_C@_0PE@FLCANBLK@0300000011010000201400000000000@ 0044ea38     glfw3:init.obj
 0002:00012b60       ??_C@_0PG@OBBCDHKC@0300000011010000201400000100000@ 0044eb60     glfw3:init.obj
 0002:00012c88       ??_C@_0PG@GJECLCNG@0300000038100000201400000100000@ 0044ec88     glfw3:init.obj
 0002:00012db0       ??_C@_0PK@LDNIFGGP@0300000011010000171400000000000@ 0044edb0     glfw3:init.obj
 0002:00012ee0       ??_C@_0PK@JJMJGHLF@0300000011010000171400002001000@ 0044eee0     glfw3:init.obj
 0002:00013010       ??_C@_0BCI@EFPMNDOG@030000004f04000015b300000000000@ 0044f010     glfw3:init.obj
 0002:00013178       ??_C@_0BCI@CPBKHDAC@030000004f04000000b300000000000@ 0044f178     glfw3:init.obj
 0002:000132e0       ??_C@_0LP@BCPNPHOA@03000000bd12000015d000000001000@ 0044f2e0     glfw3:init.obj
 0002:000133c8       ??_C@_0KG@OGEBLKCF@03000000bd12000015d000000000000@ 0044f3c8     glfw3:init.obj
 0002:00013490       ??_C@_0BCC@POEBDKJL@0300000010080000010000000000000@ 0044f490     glfw3:init.obj
 0002:000135f0       ??_C@_0MI@LOAEOOPA@050000005769696d6f7465202830300@ 0044f5f0     glfw3:init.obj
 0002:000136e0       ??_C@_0BCN@HMAHPPDL@050000005769696d6f7465202831380@ 0044f6e0     glfw3:init.obj
 0002:00013850       ??_C@_0BBP@HENHOIBN@030000005e0400008e0200000000000@ 0044f850     glfw3:init.obj
 0002:000139a8       ??_C@_0BCJ@HMCMMNGL@03000000c6240000045d00000000000@ 0044f9a8     glfw3:init.obj
 0002:00013b10       ??_C@_0BCJ@JENDBJBA@030000005e040000e30200000000000@ 0044fb10     glfw3:init.obj
 0002:00013c78       ??_C@_0BCJ@GFLPLBLI@030000005e040000d10200000000000@ 0044fc78     glfw3:init.obj
 0002:00013de0       ??_C@_0BCJ@GBONJMEB@030000005e040000dd0200000000000@ 0044fde0     glfw3:init.obj
 0002:00013f48       ??_C@_0BCM@KABHDKAM@030000005e040000e00200000000000@ 0044ff48     glfw3:init.obj
 0002:000140b0       ??_C@_0BDA@FHCCADPL@030000005e040000fd0200000309000@ 004500b0     glfw3:init.obj
 0002:00014220       ??_C@_0BCI@FEEBJOHL@030000005e040000ea0200000000000@ 00450220     glfw3:init.obj
 0002:00014388       ??_C@_0BCM@CAPIHIPI@030000005e040000e00200000309000@ 00450388     glfw3:init.obj
 0002:000144f0       ??_C@_0BCO@DEGLBPGO@0300000017270000443100002901000@ 004504f0     glfw3:init.obj
 0002:00014660       ??_C@_0BCJ@JBAGNBFA@03000000120c0000100e00000001000@ 00450660     glfw3:init.obj
 0002:000147c8       ??_C@_0BBL@KFILJCLO@0500000020380000090000000001000@ 004507c8     glfw3:init.obj
 0002:00014920       ??_C@_0BBL@KFMAAPPM@0300000002200000009000001101000@ 00450920     glfw3:init.obj
 0002:00014a78       ??_C@_0BCE@BGKGHCAB@05000000c82d0000203800000001000@ 00450a78     glfw3:init.obj
 0002:00014bd8       ??_C@_0BCM@LKOLHFDG@03000000c82d0000019000001101000@ 00450bd8     glfw3:init.obj
 0002:00014d40       ??_C@_0KA@KADDKLCN@05000000c82d0000302800000001000@ 00450d40     glfw3:init.obj
 0002:00014e00       ??_C@_0KA@FLFCPCAP@0500000010280000090000000001000@ 00450e00     glfw3:init.obj
 0002:00014ec0       ??_C@_0LI@EODKGEOE@05000000a0050000323200000801000@ 00450ec0     glfw3:init.obj
 0002:00014fa0       ??_C@_0JP@IFPNDHMB@05000000a0050000323200000100000@ 00450fa0     glfw3:init.obj
 0002:00015060       ??_C@_0BDI@OFDDGNHK@030000006f0e0000390100002006000@ 00451060     glfw3:init.obj
 0002:000151d8       ??_C@_0OM@IHEDDKBH@0300000010000000820000001101000@ 004511d8     glfw3:init.obj
 0002:000152f8       ??_C@_0BBN@HMIJKEEJ@05000000050b0000004500003100000@ 004512f8     glfw3:init.obj
 0002:00015450       ??_C@_0BBN@HPLMECEE@0300000066660000670600000001000@ 00451450     glfw3:init.obj
 0002:000155a8       ??_C@_0BBF@EPOIEDBG@03000000e8200000605800000101000@ 004515a8     glfw3:init.obj
 0002:000156f8       ??_C@_0PF@JMKDDKBC@0300000026090000888800000001000@ 004516f8     glfw3:init.obj
 0002:00015820       ??_C@_0BCK@EAEGJFKI@03000000a306000022f600001101000@ 00451820     glfw3:init.obj
 0002:00015988       ??_C@_0KG@NLINLDLG@03000000b40400000a0100000001000@ 00451988     glfw3:init.obj
 0002:00015a50       ??_C@_0BCN@PNMODGGJ@0300000079000000060000001001000@ 00451a50     glfw3:init.obj
 0002:00015bc0       ??_C@_0BCL@BCOILFMC@030000006f0e0000300100000101000@ 00451bc0     glfw3:init.obj
 0002:00015d28       ??_C@_0OJ@EIDEAACM@03000000341a000005f700001001000@ 00451d28     glfw3:init.obj
 0002:00015e40       ??_C@_0BBJ@MDDMHFAO@0500000047532047616d65706164000@ 00451e40     glfw3:init.obj
 0002:00015f98       ??_C@_0BCL@INCIKJEN@030000006f0e0000010400000001000@ 00451f98     glfw3:init.obj
 0002:00016100       ??_C@_0BCB@EFCKBGDL@030000006f0e0000130400000001000@ 00452100     glfw3:init.obj
 0002:00016260       ??_C@_0BCC@NDPGPOIA@030000006f0e00001f0100000001000@ 00452260     glfw3:init.obj
 0002:000163c0       ??_C@_0BDE@HMLCIHHK@03000000f0250000c18300001001000@ 004523c0     glfw3:init.obj
 0002:00016538       ??_C@_0MA@OBAHHDGF@0300000028040000014000000001000@ 00452538     glfw3:init.obj
 0002:00016620       ??_C@_0BDE@EOILIDOK@030000008f0e0000061000000001000@ 00452620     glfw3:init.obj
 0002:00016798       ??_C@_0BCE@FMFPKAKB@030000008f0e0000120000001001000@ 00452798     glfw3:init.obj
 0002:000168f8       ??_C@_0BCE@FNNPEDPI@030000008f0e0000030000001001000@ 004528f8     glfw3:init.obj
 0002:00016a58       ??_C@_0BBE@JGGOFFHI@0500000047532067616d65706164000@ 00452a58     glfw3:init.obj
 0002:00016ba8       ??_C@_0BCM@KAENMMC@06000000adde0000efbe00000201000@ 00452ba8     glfw3:init.obj
 0002:00016d10       ??_C@_0MO@OPMCNAC@03000000d8140000086200001101000@ 00452d10     glfw3:init.obj
 0002:00016e08       ??_C@_0BBJ@HOAKNPFO@03000000c9110000f05500001101000@ 00452e08     glfw3:init.obj
 0002:00016f60       ??_C@_0MH@LCFKBGGK@030000000d0f00000d0000000001000@ 00452f60     glfw3:init.obj
 0002:00017050       ??_C@_0OO@GJNLNJJL@030000000d0f0000100000001101000@ 00453050     glfw3:init.obj
 0002:00017170       ??_C@_0BDC@OFOLAELJ@030000000d0f00006a0000001101000@ 00453170     glfw3:init.obj
 0002:000172e0       ??_C@_0BDC@NMPFEEAB@030000000d0f00006b0000001101000@ 004532e0     glfw3:init.obj
 0002:00017450       ??_C@_0PA@BDIKJOAM@030000000d0f0000220000001101000@ 00453450     glfw3:init.obj
 0002:00017570       ??_C@_0BBF@OFLEAFEJ@030000000d0f00005f0000001101000@ 00453570     glfw3:init.obj
 0002:000176c0       ??_C@_0BBF@KJLMBACJ@030000000d0f00005e0000001101000@ 004536c0     glfw3:init.obj
 0002:00017810       ??_C@_0BCE@MMGBFIJB@03000000ad1b000001f500003305000@ 00453810     glfw3:init.obj
 0002:00017970       ??_C@_0BCC@NBBPDEHC@030000000d0f00006e0000001101000@ 00453970     glfw3:init.obj
 0002:00017ad0       ??_C@_0BCC@GIAOEEEO@030000000d0f0000660000001101000@ 00453ad0     glfw3:init.obj
 0002:00017c30       ??_C@_0BBM@KHPICJGK@030000000d0f0000670000000101000@ 00453c30     glfw3:init.obj
 0002:00017d88       ??_C@_0LJ@IMKHDMOP@030000008f0e0000133000001001000@ 00453d88     glfw3:init.obj
 0002:00017e68       ??_C@_0LL@NJNOLIBF@0300000083050000602000001001000@ 00453e68     glfw3:init.obj
 0002:00017f48       ??_C@_0BBD@NBNPKEPL@050000006964726f69643a636f6e000@ 00453f48     glfw3:init.obj
 0002:00018098       ??_C@_0BAP@DAJEOIJO@03000000b5070000150300001001000@ 00454098     glfw3:init.obj
 0002:000181e0       ??_C@_0LH@ONKJILKM@03000000fd050000003000000001000@ 004541e0     glfw3:init.obj
 0002:000182c0       ??_C@_0BCP@OFKGICJK@030000006e050000032000001001000@ 004542c0     glfw3:init.obj
 0002:00018430       ??_C@_0BCJ@LBBLNPD@03000000300f0000100100001001000@ 00454430     glfw3:init.obj
 0002:00018598       ??_C@_0BAP@LBFKBICA@03000000ba220000201000000101000@ 00454598     glfw3:init.obj
 0002:000186e0       ??_C@_0BCC@DEAAENNG@030000006f0e0000010300000002000@ 004546e0     glfw3:init.obj
 0002:00018840       ??_C@_0BCG@GADBECOE@030000006d04000019c200001001000@ 00454840     glfw3:init.obj
 0002:000189a0       ??_C@_0BBN@FFFPOOGM@030000006d04000016c200001101000@ 004549a0     glfw3:init.obj
 0002:00018af8       ??_C@_0BBN@CJJHAPIL@030000006d04000016c200001001000@ 00454af8     glfw3:init.obj
 0002:00018c50       ??_C@_0BCP@OCIJELBG@030000006d0400001dc200001440000@ 00454c50     glfw3:init.obj
 0002:00018dc0       ??_C@_0BCP@FOHDAEKD@030000006d0400001ec200002020000@ 00454dc0     glfw3:init.obj
 0002:00018f30       ??_C@_0BCH@FCGDKOAJ@030000006d04000019c200001101000@ 00454f30     glfw3:init.obj
 0002:00019098       ??_C@_0BCP@OGBHLJIO@030000006d0400001fc200000503000@ 00455098     glfw3:init.obj
 0002:00019208       ??_C@_0MP@MJDHGAFA@030000006d04000015c200001001000@ 00455208     glfw3:init.obj
 0002:00019300       ??_C@_0BBN@CINIEJLK@030000006d04000018c200001001000@ 00455300     glfw3:init.obj
 0002:00019458       ??_C@_0BBJ@HFDIMAPN@030000006d04000011c200001001000@ 00455458     glfw3:init.obj
 0002:000195b0       ??_C@_0BCG@OKDHGBAK@0500000038070000665200002501000@ 004555b0     glfw3:init.obj
 0002:00019710       ??_C@_0BCO@CIKJBCCE@0300000038070000503200001101000@ 00455710     glfw3:init.obj
 0002:00019880       ??_C@_0BCO@LFBKGNJI@0300000038070000508200001101000@ 00455880     glfw3:init.obj
 0002:000199f0       ??_C@_0OF@MLANCIHH@03000000ad1b00002ef000009004000@ 004559f0     glfw3:init.obj
 0002:00019b08       ??_C@_0BAP@JMGBFLKA@0300000038070000803400001101000@ 00455b08     glfw3:init.obj
 0002:00019c50       ??_C@_0BAP@OAPLGGBD@0300000038070000808400001101000@ 00455c50     glfw3:init.obj
 0002:00019d98       ??_C@_0BBD@EGNLFGDF@0300000038070000843300001101000@ 00455d98     glfw3:init.obj
 0002:00019ee8       ??_C@_0BBD@BKFDGCG@0300000038070000848300001101000@ 00455ee8     glfw3:init.obj
 0002:0001a038       ??_C@_0BDD@OGBJHHE@0300000038070000164700001004000@ 00456038     glfw3:init.obj
 0002:0001a1a8       ??_C@_0BBP@MGAPJMFF@0300000038070000384700009004000@ 004561a8     glfw3:init.obj
 0002:0001a300       ??_C@_0BCN@BFDCBFPE@03000000ad1b000016f000009004000@ 00456300     glfw3:init.obj
 0002:0001a470       ??_C@_0BBF@LLNMODEL@0300000038070000188800001001000@ 00456470     glfw3:init.obj
 0002:0001a5c0       ??_C@_0BCC@ELNLHOMK@0300000038070000388800001001000@ 004565c0     glfw3:init.obj
 0002:0001a720       ??_C@_0OM@LMFECDOF@0300000079000000441800001001000@ 00456720     glfw3:init.obj
 0002:0001a840       ??_C@_0LP@CBGMIEGG@0300000078000000060000001001000@ 00456840     glfw3:init.obj
 0002:0001a928       ??_C@_0BCI@DMOPMJOI@030000005e0400008e0200000401000@ 00456928     glfw3:init.obj
 0002:0001aa90       ??_C@_0BCI@LFOBONOH@030000005e0400008e0200006223000@ 00456a90     glfw3:init.obj
 0002:0001abf8       ??_C@_0BCI@EOJPHONB@030000005e040000d10200000101000@ 00456bf8     glfw3:init.obj
 0002:0001ad60       ??_C@_0BCL@NEEKFJEM@030000005e040000d10200000302000@ 00456d60     glfw3:init.obj
 0002:0001aec8       ??_C@_0BCC@OCAPCLFC@030000005e040000850200000001000@ 00456ec8     glfw3:init.obj
 0002:0001b028       ??_C@_0BCC@JKBJFGJE@030000005e040000890200002101000@ 00457028     glfw3:init.obj
 0002:0001b188       ??_C@_0BAH@IALKLBBL@05000000d6200000ad0d00000100000@ 00457188     glfw3:init.obj
 0002:0001b2c8       ??_C@_0LH@NGGJMINF@030000001008000001e500001001000@ 004572c8     glfw3:init.obj
 0002:0001b3a8       ??_C@_0BDB@EFGMHJKD@050000007e050000092000000100000@ 004573a8     glfw3:init.obj
 0002:0001b518       ??_C@_0BDB@PGNJIFCM@050000007e050000300300000100000@ 00457518     glfw3:init.obj
 0002:0001b688       ??_C@_0BCD@JEFDAAGB@0500000001000000010000000300000@ 00457688     glfw3:init.obj
 0002:0001b7e8       ??_C@_0BDD@FPBHPBO@030000000d050000030800001001000@ 004577e8     glfw3:init.obj
 0002:0001b958       ??_C@_0BBK@FGBLBHDL@0300000055090000107200001101000@ 00457958     glfw3:init.obj
 0002:0001bab0       ??_C@_0BBM@ELODDBII@0300000045130000083000001001000@ 00457ab0     glfw3:init.obj
 0002:0001bc08       ??_C@_0BBD@CJIGNCA@030000005e040000020200000001000@ 00457c08     glfw3:init.obj
 0002:0001bd58       ??_C@_0BAO@KKPFKFNM@0500000036280000010000000201000@ 00457d58     glfw3:init.obj
 0002:0001bea0       ??_C@_0BAO@IFLNAJBP@0500000036280000010000000301000@ 00457ea0     glfw3:init.obj
 0002:0001bfe8       ??_C@_0BBL@GHEJCAFE@03000000ff110000313300001001000@ 00457fe8     glfw3:init.obj
 0002:0001c140       ??_C@_0BCE@ILPMOMFJ@030000006f0e0000640100000101000@ 00458140     glfw3:init.obj
 0002:0001c2a0       ??_C@_0LH@BHNKFLDL@03000000ff110000413300001001000@ 004582a0     glfw3:init.obj
 0002:0001c380       ??_C@_0BBN@EDFEDGHD@030000004c050000680200001001000@ 00458380     glfw3:init.obj
 0002:0001c4d8       ??_C@_0BBN@GGDBBCBA@050000004c050000680200000081000@ 004584d8     glfw3:init.obj
 0002:0001c630       ??_C@_0BCB@HCCBPGP@03000000341a0000360800001101000@ 00458630     glfw3:init.obj
 0002:0001c790       ??_C@_0BBN@EFHFNOGJ@030000004c050000680200001181000@ 00458790     glfw3:init.obj
 0002:0001c8e8       ??_C@_0BBP@BDFKEALO@050000004c050000680200000001000@ 004588e8     glfw3:init.obj
 0002:0001ca40       ??_C@_0BBN@DJLNDPIO@030000004c050000680200001081000@ 00458a40     glfw3:init.obj
 0002:0001cb98       ??_C@_0BBN@DPJMNHJE@030000004c050000680200001101000@ 00458b98     glfw3:init.obj
 0002:0001ccf0       ??_C@_0BCJ@MOBPPOOO@060000004c050000680200000001000@ 00458cf0     glfw3:init.obj
 0002:0001ce58       ??_C@_0BCJ@BFBFIAMH@05000000504c415953544154494f4e0@ 00458e58     glfw3:init.obj
 0002:0001cfc0       ??_C@_0BCB@JCCNBKOA@050000004c050000c40500000001000@ 00458fc0     glfw3:init.obj
 0002:0001d120       ??_C@_0BCB@CMKDLHCN@030000004c050000a00b00001101000@ 00459120     glfw3:init.obj
 0002:0001d280       ??_C@_0BCB@JLKBMJIB@050000004c050000cc0900000081000@ 00459280     glfw3:init.obj
 0002:0001d3e0       ??_C@_0BCB@HHIMPJIH@050000004c050000c40500000081000@ 004593e0     glfw3:init.obj
 0002:0001d540       ??_C@_0BCB@MPHMICMG@030000004c050000c40500001181000@ 00459540     glfw3:init.obj
 0002:0001d6a0       ??_C@_0BCB@HOAACKOG@050000004c050000cc0900000001000@ 004596a0     glfw3:init.obj
 0002:0001d800       ??_C@_0BCB@MGPAFBKH@030000004c050000cc0900001101000@ 00459800     glfw3:init.obj
 0002:0001d960       ??_C@_0BCB@MJACFEEK@030000004c050000a00b00001181000@ 00459960     glfw3:init.obj
 0002:0001dac0       ??_C@_0BCB@CDFBLCMA@030000004c050000cc0900001181000@ 00459ac0     glfw3:init.obj
 0002:0001dc20       ??_C@_0BCB@CKNNGBKB@030000004c050000c40500001101000@ 00459c20     glfw3:init.obj
 0002:0001dd80       ??_C@_0PH@KBBCNIOJ@03000000300f0000121100001101000@ 00459d80     glfw3:init.obj
 0002:0001dea8       ??_C@_0KE@IGCCAIEM@030000009b280000030000000101000@ 00459ea8     glfw3:init.obj
 0002:0001df70       ??_C@_0BCH@LGGFCPBM@030000008916000001fd00002401000@ 00459f70     glfw3:init.obj
 0002:0001e0d8       ??_C@_0BCC@FGKMNKFE@030000008916000000fd00002401000@ 0045a0d8     glfw3:init.obj
 0002:0001e238       ??_C@_0BBO@EDJENLCH@0300000032150000001000001101000@ 0045a238     glfw3:init.obj
 0002:0001e390       ??_C@_0BCB@LLBDLKJJ@03000000c6240000045d00002501000@ 0045a390     glfw3:init.obj
 0002:0001e4f0       ??_C@_0BBN@ENPINBAO@0300000032150000000900001101000@ 0045a4f0     glfw3:init.obj
 0002:0001e648       ??_C@_0BBN@DIHFELEO@050000003215000000090000163a000@ 0045a648     glfw3:init.obj
 0002:0001e7a0       ??_C@_0BBO@CGCFIFNM@0300000032150000030a00000101000@ 0045a7a0     glfw3:init.obj
 0002:0001e8f8       ??_C@_0LM@MLHGLOBN@0300000079000000110000001001000@ 0045a8f8     glfw3:init.obj
 0002:0001e9e0       ??_C@_0JP@HAMMIOGK@0300000000f00000030000000001000@ 0045a9e0     glfw3:init.obj
 0002:0001eaa0       ??_C@_0KG@DPPFDBEG@0300000000f00000f10000000001000@ 0045aaa0     glfw3:init.obj
 0002:0001eb68       ??_C@_0BCM@CHDEFE@030000006b140000010d00001101000@ 0045ab68     glfw3:init.obj
 0002:0001ecd0       ??_C@_0BCN@CJELOFCC@030000006f0e00001e0100001101000@ 0045acd0     glfw3:init.obj
 0002:0001ee40       ??_C@_0BAK@MJMCJJPI@030000006f0e0000460100000101000@ 0045ae40     glfw3:init.obj
 0002:0001ef80       ??_C@_0BCN@KNLNJPBN@03000000a306000023f600001101000@ 0045af80     glfw3:init.obj
 0002:0001f0f0       ??_C@_0BCG@IKGKKENL@03000000a30600000cff00001001000@ 0045b0f0     glfw3:init.obj
 0002:0001f250       ??_C@_0BCM@LGBONGPL@03000000a30600000c0400001101000@ 0045b250     glfw3:init.obj
 0002:0001f3b8       ??_C@_0BAB@ECLGICHB@03000000a3060000090100000001000@ 0045b3b8     glfw3:init.obj
 0002:0001f4f0       ??_C@_0BCE@FHGCGPIB@03000000a30600000b0400000001000@ 0045b4f0     glfw3:init.obj
 0002:0001f650       ??_C@_0BCL@MPGLFJGC@03000000a306000018f500001001000@ 0045b650     glfw3:init.obj
 0002:0001f7b8       ??_C@_0BCD@MGDEOILE@03000000c0160000870400001101000@ 0045b7b8     glfw3:init.obj
 0002:0001f918       ??_C@_0BCN@PKJKBBEM@03000000f025000021c100001001000@ 0045b918     glfw3:init.obj
 0002:0001fa88       ??_C@_0BCL@GAPBJBMC@0300000025090000050000000001000@ 0045ba88     glfw3:init.obj
 0002:0001fbf0       ??_C@_0BDB@FLDCOIHG@030000005e0400008e0200007305000@ 0045bbf0     glfw3:init.obj
 0002:0001fd60       ??_C@_0BDG@HMNPKELM@030000005e0400008e0200002020000@ 0045bd60     glfw3:init.obj
 0002:0001fed8       ??_C@_0MP@JHHJFJJN@03000000de280000021100000100000@ 0045bed8     glfw3:init.obj
 0002:0001ffd0       ??_C@_0MP@FHHAFDCH@05000000de280000051100000100000@ 0045bfd0     glfw3:init.obj
 0002:000200c8       ??_C@_0MP@KIEFCEND@03000000de280000011200000100000@ 0045c0c8     glfw3:init.obj
 0002:000201c0       ??_C@_0MP@JPEINMFL@05000000de280000021200000100000@ 0045c1c0     glfw3:init.obj
 0002:000202b8       ??_C@_0BCB@BDJGNCHB@03000000de280000fc1100000100000@ 0045c2b8     glfw3:init.obj
 0002:00020418       ??_C@_0MP@FPFJAMOP@03000000de280000421100000100000@ 0045c418     glfw3:init.obj
 0002:00020510       ??_C@_0BCG@HCILKDJN@03000000de280000ff1100000100000@ 0045c510     glfw3:init.obj
 0002:00020670       ??_C@_0BBI@BOHGPDFB@0300000066660000048800000001000@ 0045c670     glfw3:init.obj
 0002:000207c0       ??_C@_0BBP@JNCLFIIB@030000004f04000020b300001001000@ 0045c7c0     glfw3:init.obj
 0002:00020918       ??_C@_0BCD@OCJAOEJP@030000004f04000015b300001001000@ 0045c918     glfw3:init.obj
 0002:00020a78       ??_C@_0BCJ@BMLEIPAJ@030000004f04000023b300000001000@ 0045ca78     glfw3:init.obj
 0002:00020be0       ??_C@_0BDE@BBKMEPF@030000004f04000000b300001001000@ 0045cbe0     glfw3:init.obj
 0002:00020d58       ??_C@_0BCK@FNPDAAAN@030000004f04000008d000000001000@ 0045cd58     glfw3:init.obj
 0002:00020ec0       ??_C@_0BDI@JNKGOPKH@030000004f04000009d000000001000@ 0045cec0     glfw3:init.obj
 0002:00021038       ??_C@_0LM@JBBKIHKB@03000000bd12000015d000001001000@ 0045d038     glfw3:init.obj
 0002:00021120       ??_C@_0MC@LLGGFHJA@03000000d814000007cd00001101000@ 0045d120     glfw3:init.obj
 0002:00021208       ??_C@_0BBN@GECLGOBK@0300000010080000010000001001000@ 0045d208     glfw3:init.obj
 0002:00021360       ??_C@_0BBE@LNDPKJOE@0300000010080000030000001001000@ 0045d360     glfw3:init.obj
 0002:000214b0       ??_C@_0IA@GKEJEKKE@0300000079000000110000000001000@ 0045d4b0     glfw3:init.obj
 0002:00021550       ??_C@_0BAP@FIHDOOAA@05000000ac050000323200000100000@ 0045d550     glfw3:init.obj
 0002:00021698       ??_C@_0BCA@KDCHMLBI@030000005e0400008e0200001401000@ 0045d698     glfw3:init.obj
 0002:000217f8       ??_C@_0BCA@IBILPEIB@030000005e0400008e0200001001000@ 0045d7f8     glfw3:init.obj
 0002:00021958       ??_C@_0BCF@GFBOBFNK@030000005e040000190700000001000@ 0045d958     glfw3:init.obj
 0002:00021ab8       ??_C@_0BCF@HCNAOLEE@030000005e040000910200000701000@ 0045dab8     glfw3:init.obj
 0002:00021c18       ??_C@_0BCJ@FCBDJONF@030000005e040000a10200000701000@ 0045dc18     glfw3:init.obj
 0002:00021d80       ??_C@_0BCF@HMAJMPIB@030000005e040000a10200000001000@ 0045dd80     glfw3:init.obj
 0002:00021ee0       ??_C@_0BCJ@KDHNKOAJ@0000000058626f78203336302057690@ 0045dee0     glfw3:init.obj
 0002:00022048       ??_C@_0BDA@MJBCKDNM@0000000058626f782047616d6570610@ 0045e048     glfw3:init.obj
 0002:000221b8       ??_C@_0BCN@MJMBNEGC@050000005e040000e00200000309000@ 0045e1b8     glfw3:init.obj
 0002:00022328       ??_C@_0BDB@COLJAIGG@050000005e040000fd0200000309000@ 0045e328     glfw3:init.obj
 0002:00022498       ??_C@_0BCA@DEGBIFC@03000000450c0000204300001001000@ 0045e498     glfw3:init.obj
 0002:000225f8       ??_C@_0BCL@OCCALEC@0500000017270000443100002901000@ 0045e5f8     glfw3:init.obj
 0002:00022760       ??_C@_0NH@JDHAOPDE@03000000c0160000e10500000101000@ 0045e760     glfw3:init.obj
 0002:00022868       ??_C@_0BCG@HOFCBBCN@03000000120c0000100e00001101000@ 0045e868     glfw3:init.obj
 0002:000229c8       ??_C@_0BBA@GMEAIAKA@6463343631396565666437363432336@ 0045e9c8     glfw3:init.obj
 0002:00022b10       ??_C@_0BBD@EKDOFJJC@6136393165613533613066356161626@ 0045eb10     glfw3:init.obj
 0002:00022c60       ??_C@_0BBD@JLOPFCFH@4e564944494120436f72706f7261746@ 0045ec60     glfw3:init.obj
 0002:00022db0       ??_C@_0BBD@MDEBLIDN@3733643566633865356531373130383@ 0045edb0     glfw3:init.obj
 0002:00022f00       ??_C@_0BCG@EIEAMGGG@3564303130303332613031633035356@ 0045ef00     glfw3:init.obj
 0002:00023060       ??_C@_0NB@GCLNIPCM@05000000de280000051100000100000@ 0045f060     glfw3:init.obj
 0002:00023160       ??_C@_0BCG@IDKALIIN@5477696e20555342204a6f797374696@ 0045f160     glfw3:init.obj
 0002:000232c0       ??_C@_0BCG@PALCOHIL@3435613663336661353031633837613@ 0045f2c0     glfw3:init.obj
 0002:00023420       ??_C@_0PG@CFHNEHNN@4d466947616d6570616401000000000@ 0045f420     glfw3:init.obj
 0002:00023548       ??_C@_0KI@EKALFCGN@4d466947616d6570616402000000000@ 0045f548     glfw3:init.obj
 0002:00023618       ??_C@_0MN@MECJDKLN@05000000de280000051100000100000@ 0045f618     glfw3:init.obj
 0002:00023710       ??_C@_0BBO@HLNJIBPP@78696e7075740100000000000000000@ 0045f710     glfw3:init.obj
 0002:00023868       ??_C@_0BBM@MJENJJEJ@78696e7075740200000000000000000@ 0045f868     glfw3:init.obj
 0002:000239c0       ??_C@_0BCD@BBICEOLK@78696e7075740300000000000000000@ 0045f9c0     glfw3:init.obj
 0002:00023b20       ??_C@_0BCD@CGKCHHKM@78696e7075740400000000000000000@ 0045fb20     glfw3:init.obj
 0002:00023c80       ??_C@_0BCA@KPDCPHP@78696e7075740500000000000000000@ 0045fc80     glfw3:init.obj
 0002:00023de0       ??_C@_0BBN@HKPLBABN@78696e7075740600000000000000000@ 0045fde0     glfw3:init.obj
 0002:00023f38       ??_C@_0BBP@NMPDIJKG@78696e7075740800000000000000000@ 0045ff38     glfw3:init.obj
 0002:00024090       ??_C@_0CE@BEELAIPG@The?5GLFW?5library?5is?5not?5initial@ 00460090     glfw3:init.obj
 0002:000240bc       ??_C@_0BM@PKHPFLOM@There?5is?5no?5current?5context@ 004600bc     glfw3:init.obj
 0002:000240e0       ??_C@_0CE@KDBKFLEE@Invalid?5argument?5for?5enum?5param@ 004600e0     glfw3:init.obj
 0002:0002410c       ??_C@_0BM@BADCNPOM@Invalid?5value?5for?5parameter@ 0046010c     glfw3:init.obj
 0002:00024130       ??_C@_0O@NALGGDJF@Out?5of?5memory@ 00460130     glfw3:init.obj
 0002:00024140       ??_C@_0CB@HAFFDHLH@The?5requested?5API?5is?5unavailabl@ 00460140     glfw3:init.obj
 0002:00024168       ??_C@_0CJ@KOFEFGNB@The?5requested?5API?5version?5is?5un@ 00460168     glfw3:init.obj
 0002:0002419c       ??_C@_0CD@HJEBEGLD@A?5platform?9specific?5error?5occur@ 0046019c     glfw3:init.obj
 0002:000241c8       ??_C@_0CE@PCLEMLLO@The?5requested?5format?5is?5unavail@ 004601c8     glfw3:init.obj
 0002:000241f4       ??_C@_0CE@OJFJMLEI@The?5specified?5window?5has?5no?5con@ 004601f4     glfw3:init.obj
 0002:00024220       ??_C@_0BK@PMMAHJAK@ERROR?3?5UNKNOWN?5GLFW?5ERROR@ 00460220     glfw3:init.obj
 0002:00024240       ??_C@_0BJ@HDECIKCI@Invalid?5init?5hint?50x?$CF08X@ 00460240     glfw3:init.obj
 0002:00024260       ??_C@_0BK@KJGCMOHN@Invalid?5window?5size?5?$CFix?$CFi@ 00460260     glfw3:window.obj
 0002:00024280       ??_C@_0BL@IDFNAMEG@Invalid?5window?5hint?50x?$CF08X@ 00460280     glfw3:window.obj
 0002:000242a0       ??_C@_0CC@NBPCCDGB@Invalid?5window?5hint?5string?50x?$CF0@ 004602a0     glfw3:window.obj
 0002:000242c8       ??_C@_0CC@HJEJGDAP@Invalid?5window?5minimum?5size?5?$CFix@ 004602c8     glfw3:window.obj
 0002:000242f0       ??_C@_0CC@NOHNODHG@Invalid?5window?5maximum?5size?5?$CFix@ 004602f0     glfw3:window.obj
 0002:00024318       ??_C@_0CC@BPDGBBAB@Invalid?5window?5aspect?5ratio?5?$CFi?3@ 00460318     glfw3:window.obj
 0002:00024340       ??_C@_0BK@MBEPKAIA@Invalid?5window?5opacity?5?$CFf@ 00460340     glfw3:window.obj
 0002:00024360       ??_C@_0CA@KCGCFCEG@Invalid?5window?5attribute?50x?$CF08X@ 00460360     glfw3:window.obj
 0002:00024388       ??_C@_0BI@BFOJALMM@Invalid?5refresh?5rate?5?$CFi@ 00460388     glfw3:window.obj
 0002:000243a4       ??_C@_0BA@KMGHNAFM@Invalid?5time?5?$CFf@ 004603a4     glfw3:window.obj
 0002:000243b8       __real@7fefffffffffffff    004603b8     glfw3:window.obj
 0002:000243d0       __xmm@00000000000000010003600100030001 004603d0     glfw3:window.obj
 0002:000243f0       __xmm@00000001000000010000000100000001 004603f0     glfw3:window.obj
 0002:00024410       __xmm@00000008000000080000000800000008 00460410     glfw3:window.obj
 0002:00024424       ??_C@_0CK@HLLADGKC@Invalid?5button?5in?5gamepad?5mappi@ 00460424     glfw3:input.obj
 0002:00024458       ??_C@_0CI@DPNGBGFF@Invalid?5axis?5in?5gamepad?5mapping@ 00460458     glfw3:input.obj
 0002:00024488       ??_C@_08CBHCFJJK@platform@ 00460488     glfw3:input.obj
 0002:00024494       ??_C@_01MCMALHOG@a@        00460494     glfw3:input.obj
 0002:00024498       ??_C@_01OJONOECF@b@        00460498     glfw3:input.obj
 0002:0002449c       ??_C@_01FJMABOPO@x@        0046049c     glfw3:input.obj
 0002:000244a0       ??_C@_01EANLCPLP@y@        004604a0     glfw3:input.obj
 0002:000244a4       ??_C@_04JFCNHLLM@back@     004604a4     glfw3:input.obj
 0002:000244ac       ??_C@_05FAGFPHJG@start@    004604ac     glfw3:input.obj
 0002:000244b4       ??_C@_05HLIEEKJG@guide@    004604b4     glfw3:input.obj
 0002:000244bc       ??_C@_0N@MEFCLEJO@leftshoulder@ 004604bc     glfw3:input.obj
 0002:000244cc       ??_C@_0O@LCPOPKLJ@rightshoulder@ 004604cc     glfw3:input.obj
 0002:000244dc       ??_C@_09MEKLKMGE@leftstick@ 004604dc     glfw3:input.obj
 0002:000244e8       ??_C@_0L@DHLNGPDM@rightstick@ 004604e8     glfw3:input.obj
 0002:000244f8       ??_C@_04EDFFKKLO@dpup@     004604f8     glfw3:input.obj
 0002:00024500       ??_C@_07FLLKAONK@dpright@  00460500     glfw3:input.obj
 0002:0002450c       ??_C@_06LDHPELJC@dpdown@   0046050c     glfw3:input.obj
 0002:00024514       ??_C@_06EBHLNDKL@dpleft@   00460514     glfw3:input.obj
 0002:0002451c       ??_C@_0M@FLKHLCCP@lefttrigger@ 0046051c     glfw3:input.obj
 0002:0002452c       ??_C@_0N@CLKIAFGP@righttrigger@ 0046052c     glfw3:input.obj
 0002:0002453c       ??_C@_05MKIKPCON@leftx@    0046053c     glfw3:input.obj
 0002:00024544       ??_C@_05NDJBMDKM@lefty@    00460544     glfw3:input.obj
 0002:0002454c       ??_C@_06FHABPINC@rightx@   0046054c     glfw3:input.obj
 0002:00024554       ??_C@_06EOBKMJJD@righty@   00460554     glfw3:input.obj
 0002:0002455c       ??_C@_01IHBHIGKO@?0@       0046055c     glfw3:input.obj
 0002:00024560       ??_C@_07LDLFNPGN@Windows@  00460560     glfw3:input.obj
 0002:0002456c       ??_C@_0BK@PDCFBJPK@Invalid?5input?5mode?50x?$CF08X@ 0046056c     glfw3:input.obj
 0002:0002458c       ??_C@_0BL@IKJGDNLO@Invalid?5cursor?5mode?50x?$CF08X@ 0046058c     glfw3:input.obj
 0002:000245ac       ??_C@_0DB@JJADGKIE@Raw?5mouse?5motion?5is?5not?5support@ 004605ac     glfw3:input.obj
 0002:000245e8       ??_C@_0P@PKABKPLF@Invalid?5key?5?$CFi@ 004605e8     glfw3:input.obj
 0002:000245fc       ??_C@_0BI@POJNLJDO@Invalid?5mouse?5button?5?$CFi@ 004605fc     glfw3:input.obj
 0002:00024618       ??_C@_0BO@JCPCDDEA@Invalid?5cursor?5position?5?$CFf?5?$CFf@ 00460618     glfw3:input.obj
 0002:0002463c       ??_C@_0BP@EMCHFHHH@Invalid?5standard?5cursor?50x?$CF08X@ 0046063c     glfw3:input.obj
 0002:00024664       ??_C@_0BH@PHEJANJA@Invalid?5joystick?5ID?5?$CFi@ 00460664     glfw3:input.obj
 0002:00024680       ??_C@_02PCIJFNDE@?$AN?6@   00460680     glfw3:input.obj
 0002:00024688       __real@0000000000000000    00460688     glfw3:input.obj
 0002:00024698       __real@3fe0000000000000    00460698     glfw3:input.obj
 0002:000246a8       __real@42112e0be8240000    004606a8     glfw3:input.obj
 0002:000246b8       __real@ffefffffffffffff    004606b8     glfw3:input.obj
 0002:000246c4       ??_C@_0CE@JBLPENML@Invalid?5context?5creation?5API?50x@ 004606c4     glfw3:context.obj
 0002:000246f0       ??_C@_0BK@EIOPBJJH@Invalid?5client?5API?50x?$CF08X@ 004606f0     glfw3:context.obj
 0002:00024710       ??_C@_0BN@DHKEBMCG@Invalid?5OpenGL?5version?5?$CFi?4?$CFi@ 00460710     glfw3:context.obj
 0002:00024734       ??_C@_0BO@PCKHNBJ@Invalid?5OpenGL?5profile?50x?$CF08X@ 00460734     glfw3:context.obj
 0002:00024758       ??_C@_0ED@FEABOOIM@Context?5profiles?5are?5only?5defin@ 00460758     glfw3:context.obj
 0002:000247a8       ??_C@_0EH@CMDCLIEA@Forward?9compatibility?5is?5only?5d@ 004607a8     glfw3:context.obj
 0002:00024800       ??_C@_0CA@LFIDGAHJ@Invalid?5OpenGL?5ES?5version?5?$CFi?4?$CFi@ 00460800     glfw3:context.obj
 0002:00024828       ??_C@_0CH@PNNMGINB@Invalid?5context?5robustness?5mode@ 00460828     glfw3:context.obj
 0002:00024858       ??_C@_0CI@JDDJIGNN@Invalid?5context?5release?5behavio@ 00460858     glfw3:context.obj
 0002:00024888       ??_C@_0O@ENGHJHNB@OpenGL?5ES?9CM?5@ 00460888     glfw3:context.obj
 0002:00024898       ??_C@_0O@EMKFPNOG@OpenGL?5ES?9CL?5@ 00460898     glfw3:context.obj
 0002:000248a8       ??_C@_0L@JLFHOCGA@OpenGL?5ES?5@ 004608a8     glfw3:context.obj
 0002:000248b8       ??_C@_0O@DHHDCCLF@glGetIntegerv@ 004608b8     glfw3:context.obj
 0002:000248c8       ??_C@_0M@OPOBFDCB@glGetString@ 004608c8     glfw3:context.obj
 0002:000248d8       ??_C@_0CA@LDAANPIM@Entry?5point?5retrieval?5is?5broken@ 004608d8     glfw3:context.obj
 0002:00024900       ??_C@_0CK@DKAFEDIC@OpenGL?5version?5string?5retrieval@ 00460900     glfw3:context.obj
 0002:00024934       ??_C@_0CN@GOPDCGGI@OpenGL?5ES?5version?5string?5retrie@ 00460934     glfw3:context.obj
 0002:0002496c       ??_C@_08FOJKHHJA@?$CFd?4?$CFd?4?$CFd@ 0046096c     glfw3:context.obj
 0002:00024978       ??_C@_0CK@DDNMEIKD@No?5version?5found?5in?5OpenGL?5vers@ 00460978     glfw3:context.obj
 0002:000249ac       ??_C@_0CN@FALFGDO@No?5version?5found?5in?5OpenGL?5ES?5v@ 004609ac     glfw3:context.obj
 0002:000249e4       ??_C@_0DC@KIAJNHJN@Requested?5OpenGL?5version?5?$CFi?4?$CFi?0@ 004609e4     glfw3:context.obj
 0002:00024a20       ??_C@_0DF@EFFMOKHE@Requested?5OpenGL?5ES?5version?5?$CFi?4@ 00460a20     glfw3:context.obj
 0002:00024a60       ??_C@_0N@PILJCBOD@glGetStringi@ 00460a60     glfw3:context.obj
 0002:00024a70       ??_C@_0BE@OHIPHHMJ@GL_ARB_debug_output@ 00460a70     glfw3:context.obj
 0002:00024a88       ??_C@_0BF@CJMIIMBG@GL_ARB_compatibility@ 00460a88     glfw3:context.obj
 0002:00024aa4       ??_C@_0BC@EOBKJDCM@GL_ARB_robustness@ 00460aa4     glfw3:context.obj
 0002:00024abc       ??_C@_0BC@CLDFFND@GL_EXT_robustness@ 00460abc     glfw3:context.obj
 0002:00024ad4       ??_C@_0BN@FNDGKECA@GL_KHR_context_flush_control@ 00460ad4     glfw3:context.obj
 0002:00024af8       ??_C@_07IBAPPAHJ@glClear@  00460af8     glfw3:context.obj
 0002:00024b08       ??_C@_0EK@HBJBDMAL@Cannot?5make?5current?5with?5a?5wind@ 00460b08     glfw3:context.obj
 0002:00024b60       ??_C@_0EI@PJFDHBJK@Cannot?5swap?5buffers?5of?5a?5window@ 00460b60     glfw3:context.obj
 0002:00024bb8       ??_C@_0EH@BEBOCAGI@Cannot?5set?5swap?5interval?5withou@ 00460bb8     glfw3:context.obj
 0002:00024c10       ??_C@_0EF@NMJGLODJ@Cannot?5query?5extension?5without?5@ 00460c10     glfw3:context.obj
 0002:00024c64       ??_C@_0CJ@JDBBFPLM@Extension?5name?5cannot?5be?5an?5emp@ 00460c64     glfw3:context.obj
 0002:00024c98       ??_C@_0CF@KMMHNOMI@Extension?5string?5retrieval?5is?5b@ 00460c98     glfw3:context.obj
 0002:00024cc8       ??_C@_0EH@LGPPFAO@Cannot?5query?5entry?5point?5withou@ 00460cc8     glfw3:context.obj
 0002:00024d34       ??_C@_09CBHKFKGB@winmm?4dll@ 00460d34     glfw3:win32_init.obj
 0002:00024d40       ??_C@_0CA@EDJENDDE@Win32?3?5Failed?5to?5load?5winmm?4dll@ 00460d40     glfw3:win32_init.obj
 0002:00024d68       ??_C@_0M@DEPJBPP@timeGetTime@ 00460d68     glfw3:win32_init.obj
 0002:00024d78       ??_C@_0L@GMPLCCII@user32?4dll@ 00460d78     glfw3:win32_init.obj
 0002:00024d88       ??_C@_0CB@HHJIGJHK@Win32?3?5Failed?5to?5load?5user32?4dl@ 00460d88     glfw3:win32_init.obj
 0002:00024db0       ??_C@_0BD@ENICNPLM@SetProcessDPIAware@ 00460db0     glfw3:win32_init.obj
 0002:00024dc8       ??_C@_0BM@OCGPLDNC@ChangeWindowMessageFilterEx@ 00460dc8     glfw3:win32_init.obj
 0002:00024dec       ??_C@_0BK@NKEDGNNN@EnableNonClientDpiScaling@ 00460dec     glfw3:win32_init.obj
 0002:00024e0c       ??_C@_0BO@LHMLBOLK@SetProcessDpiAwarenessContext@ 00460e0c     glfw3:win32_init.obj
 0002:00024e30       ??_C@_0BA@LGGPEDOH@GetDpiForWindow@ 00460e30     glfw3:win32_init.obj
 0002:00024e44       ??_C@_0BJ@MBAAGFCG@AdjustWindowRectExForDpi@ 00460e44     glfw3:win32_init.obj
 0002:00024e64       ??_C@_0M@ONOEDIJO@dinput8?4dll@ 00460e64     glfw3:win32_init.obj
 0002:00024e74       ??_C@_0BD@IJCCAMHG@DirectInput8Create@ 00460e74     glfw3:win32_init.obj
 0002:00024e8c       ??_C@_0O@LNFLKCMF@xinput1_4?4dll@ 00460e8c     glfw3:win32_init.obj
 0002:00024e9c       ??_C@_0O@KAFOJCHN@xinput1_3?4dll@ 00460e9c     glfw3:win32_init.obj
 0002:00024eac       ??_C@_0BA@GHGALGFD@xinput9_1_0?4dll@ 00460eac     glfw3:win32_init.obj
 0002:00024ec0       ??_C@_0O@GLACEBNI@xinput1_2?4dll@ 00460ec0     glfw3:win32_init.obj
 0002:00024ed0       ??_C@_0O@ONJGDDHG@xinput1_1?4dll@ 00460ed0     glfw3:win32_init.obj
 0002:00024ee0       ??_C@_0BG@ELBNFOBA@XInputGetCapabilities@ 00460ee0     glfw3:win32_init.obj
 0002:00024efc       ??_C@_0P@FCCEJHCC@XInputGetState@ 00460efc     glfw3:win32_init.obj
 0002:00024f10       ??_C@_0L@FACOJKPJ@dwmapi?4dll@ 00460f10     glfw3:win32_init.obj
 0002:00024f20       ??_C@_0BI@KJPLJBHH@DwmIsCompositionEnabled@ 00460f20     glfw3:win32_init.obj
 0002:00024f3c       ??_C@_08PEMNBIMD@DwmFlush@ 00460f3c     glfw3:win32_init.obj
 0002:00024f48       ??_C@_0BK@HMMKMEOH@DwmEnableBlurBehindWindow@ 00460f48     glfw3:win32_init.obj
 0002:00024f68       ??_C@_0L@DMFDIJCG@shcore?4dll@ 00460f68     glfw3:win32_init.obj
 0002:00024f78       ??_C@_0BH@DGFLCCMF@SetProcessDpiAwareness@ 00460f78     glfw3:win32_init.obj
 0002:00024f94       ??_C@_0BB@MAMHPNNC@GetDpiForMonitor@ 00460f94     glfw3:win32_init.obj
 0002:00024fa8       ??_C@_09FLKFJBLM@ntdll?4dll@ 00460fa8     glfw3:win32_init.obj
 0002:00024fb4       ??_C@_0BF@LOGLPPDD@RtlVerifyVersionInfo@ 00460fb4     glfw3:win32_init.obj
 0002:00024fd0       ??_C@_1CI@MPNNJFCJ@?$AAG?$AAL?$AAF?$AAW?$AA?5?$AAm?$AAe?$AAs?$AAs?$AAa?$AAg?$AAe?$AA?5?$AAw?$AAi@ 00460fd0     glfw3:win32_init.obj
 0002:00025000       ??_C@_1O@IBNLCBOC@?$AAG?$AAL?$AAF?$AAW?$AA3?$AA0@ 00461000     glfw3:win32_init.obj
 0002:00025010       ??_C@_0CG@LDJIJKNI@Win32?3?5Failed?5to?5create?5helper?5@ 00461010     glfw3:win32_init.obj
 0002:00025040       ??_C@_0CL@JEJIBJNG@Win32?3?5Failed?5to?5convert?5string@ 00461040     glfw3:win32_init.obj
 0002:00025074       ??_C@_0CJ@EFIFNOJC@Win32?3?5Failed?5to?5convert?5string@ 00461074     glfw3:win32_init.obj
 0002:000250a8       ??_C@_06DJHOIPC@?$CFs?3?5?$CFs@ 004610a8     glfw3:win32_init.obj
 0002:000250b0       ??_C@_0CD@FFLHJJKH@3?43?41?5Win32?5WGL?5EGL?5OSMesa?5Visu@ 004610b0     glfw3:win32_init.obj
 0002:000250e0       __xmm@00380037003600350034003300320031 004610e0     glfw3:win32_init.obj
 0002:00025100       __xmm@01290128012701260125012401230122 00461100     glfw3:win32_init.obj
 0002:00025120       __xmm@013501340133013201310130012f012e 00461120     glfw3:win32_init.obj
 0002:00025134       ??_C@_1BA@PICGEGJB@?$AAD?$AAI?$AAS?$AAP?$AAL?$AAA?$AAY@ 00461134     glfw3:win32_monitor.obj
 0002:00025148       ??_C@_0O@NIPGCINC@Unknown?5error@ 00461148     glfw3:win32_monitor.obj
 0002:00025158       ??_C@_0BJ@EJOHFDHH@The?5system?5uses?5DualView@ 00461158     glfw3:win32_monitor.obj
 0002:00025178       ??_C@_0O@IHOLGAKK@Invalid?5flags@ 00461178     glfw3:win32_monitor.obj
 0002:00025188       ??_C@_0BM@KPJJBADD@Graphics?5mode?5not?5supported@ 00461188     glfw3:win32_monitor.obj
 0002:000251ac       ??_C@_0BC@DBAKKFEN@Invalid?5parameter@ 004611ac     glfw3:win32_monitor.obj
 0002:000251c4       ??_C@_0BF@JHMFGJBN@Graphics?5mode?5failed@ 004611c4     glfw3:win32_monitor.obj
 0002:000251e0       ??_C@_0BM@IGBABBBF@Failed?5to?5write?5to?5registry@ 004611e0     glfw3:win32_monitor.obj
 0002:00025204       ??_C@_0BK@OEGBAIFC@Computer?5restart?5required@ 00461204     glfw3:win32_monitor.obj
 0002:00025224       ??_C@_0CE@IKOICJPN@Win32?3?5Failed?5to?5set?5video?5mode@ 00461224     glfw3:win32_monitor.obj
 0002:00025250       ??_C@_0CD@EGEEPFHF@Win32?3?5Gamma?5ramp?5size?5must?5be?5@ 00461250     glfw3:win32_monitor.obj
 0002:0002527c       __real@41cb3333            0046127c     glfw3:win32_monitor.obj
 0002:00025280       __real@42c00000            00461280     glfw3:win32_monitor.obj
 0002:00025284       ??_C@_0CE@MEIEKJIC@Win32?3?5Failed?5to?5allocate?5TLS?5i@ 00461284     glfw3:win32_thread.obj
 0002:000252b0       ??_C@_0BH@BAPIEFAH@Invalid?5gamma?5value?5?$CFf@ 004612b0     glfw3:monitor.obj
 0002:000252cc       ??_C@_0BL@OAABODH@Invalid?5gamma?5ramp?5size?5?$CFi@ 004612cc     glfw3:monitor.obj
 0002:000252ec       __real@7f7fffff            004612ec     glfw3:monitor.obj
 0002:000252f0       ??_C@_0N@IILPFLFM@vulkan?91?4dll@ 004612f0     glfw3:vulkan.obj
 0002:00025300       ??_C@_0BJ@PGPMJKGJ@Vulkan?3?5Loader?5not?5found@ 00461300     glfw3:vulkan.obj
 0002:00025320       ??_C@_0BG@HBCIDECD@vkGetInstanceProcAddr@ 00461320     glfw3:vulkan.obj
 0002:0002533c       ??_C@_0DF@FEPNJFGL@Vulkan?3?5Loader?5does?5not?5export?5@ 0046133c     glfw3:vulkan.obj
 0002:0002537c       ??_C@_0CH@DNHGEPME@vkEnumerateInstanceExtensionPro@ 0046137c     glfw3:vulkan.obj
 0002:000253b0       ??_C@_0EC@MCALKGHI@Vulkan?3?5Failed?5to?5retrieve?5vkEn@ 004613b0     glfw3:vulkan.obj
 0002:00025400       ??_C@_0DF@KADNFCFI@Vulkan?3?5Failed?5to?5query?5instanc@ 00461400     glfw3:vulkan.obj
 0002:00025440       ??_C@_0DA@LIIDOJC@Vulkan?3?5Failed?5to?5query?5instanc@ 00461440     glfw3:vulkan.obj
 0002:0002547c       ??_C@_0P@IENCOMCD@VK_KHR_surface@ 0046147c     glfw3:vulkan.obj
 0002:00025490       ??_C@_0BF@COCMEDFO@VK_KHR_win32_surface@ 00461490     glfw3:vulkan.obj
 0002:000254ac       ??_C@_07PBILKAFL@Success@  004614ac     glfw3:vulkan.obj
 0002:000254b8       ??_C@_0CH@GBHCOIGC@A?5fence?5or?5query?5has?5not?5yet?5co@ 004614b8     glfw3:vulkan.obj
 0002:000254e8       ??_C@_0DJ@KAONABFK@A?5wait?5operation?5has?5not?5comple@ 004614e8     glfw3:vulkan.obj
 0002:0002552c       ??_C@_0BF@NEMNBLEB@An?5event?5is?5signaled@ 0046152c     glfw3:vulkan.obj
 0002:00025548       ??_C@_0BH@MDCGBFEN@An?5event?5is?5unsignaled@ 00461548     glfw3:vulkan.obj
 0002:00025564       ??_C@_0CM@GKIHKJDL@A?5return?5array?5was?5too?5small?5fo@ 00461564     glfw3:vulkan.obj
 0002:00025598       ??_C@_0CE@HKNBGEPI@A?5host?5memory?5allocation?5has?5fa@ 00461598     glfw3:vulkan.obj
 0002:000255c4       ??_C@_0CG@CHEOMKGJ@A?5device?5memory?5allocation?5has?5@ 004615c4     glfw3:vulkan.obj
 0002:000255f8       ??_C@_0FH@MCDKNJAI@Initialization?5of?5an?5object?5cou@ 004615f8     glfw3:vulkan.obj
 0002:00025660       ??_C@_0CN@IHJGMBHI@The?5logical?5or?5physical?5device?5@ 00461660     glfw3:vulkan.obj
 0002:00025698       ??_C@_0CG@CHGOPGBD@Mapping?5of?5a?5memory?5object?5has?5@ 00461698     glfw3:vulkan.obj
 0002:000256c8       ??_C@_0DI@GNLCAHHB@A?5requested?5layer?5is?5not?5presen@ 004616c8     glfw3:vulkan.obj
 0002:0002570c       ??_C@_0CH@NEGEBDM@A?5requested?5extension?5is?5not?5su@ 0046170c     glfw3:vulkan.obj
 0002:0002573c       ??_C@_0CF@OFADCJLJ@A?5requested?5feature?5is?5not?5supp@ 0046173c     glfw3:vulkan.obj
 0002:00025768       ??_C@_0FM@BBONGFMN@The?5requested?5version?5of?5Vulkan@ 00461768     glfw3:vulkan.obj
 0002:000257d8       ??_C@_0DH@EKEHMEFD@Too?5many?5objects?5of?5the?5type?5ha@ 004617d8     glfw3:vulkan.obj
 0002:0002581c       ??_C@_0DD@OOKDLCED@A?5requested?5format?5is?5not?5suppo@ 0046181c     glfw3:vulkan.obj
 0002:0002585c       ??_C@_0CB@EJFBPGFM@A?5surface?5is?5no?5longer?5availabl@ 0046185c     glfw3:vulkan.obj
 0002:00025888       ??_C@_0FE@ILJLDKCD@A?5swapchain?5no?5longer?5matches?5t@ 00461888     glfw3:vulkan.obj
 0002:000258f0       ??_C@_0FH@FIPMKLID@A?5surface?5has?5changed?5in?5such?5a@ 004618f0     glfw3:vulkan.obj
 0002:00025958       ??_C@_0EP@OJIEDFOO@The?5display?5used?5by?5a?5swapchain@ 00461958     glfw3:vulkan.obj
 0002:000259b8       ??_C@_0FN@PJBCJBIL@The?5requested?5window?5is?5already@ 004619b8     glfw3:vulkan.obj
 0002:00025a28       ??_C@_0CC@HDNEDJNI@A?5validation?5layer?5found?5an?5err@ 00461a28     glfw3:vulkan.obj
 0002:00025a50       ??_C@_0BM@OMEGJAIK@ERROR?3?5UNKNOWN?5VULKAN?5ERROR@ 00461a50     glfw3:vulkan.obj
 0002:00025a74       ??_C@_0DF@FCIHEFHD@Vulkan?3?5Window?5surface?5creation@ 00461a74     glfw3:vulkan.obj
 0002:00025ab8       ??_C@_0FO@KAELFDNN@Vulkan?3?5Window?5surface?5creation@ 00461ab8     glfw3:vulkan.obj
 0002:00025b28       ??_C@_0CE@GCBEILKL@Win32?3?5Failed?5to?5create?5RGBA?5bi@ 00461b28     glfw3:win32_window.obj
 0002:00025b54       ??_C@_0CE@PKGOIGHB@Win32?3?5Failed?5to?5create?5mask?5bi@ 00461b54     glfw3:win32_window.obj
 0002:00025b80       ??_C@_0BN@HJHDCKKP@Win32?3?5Failed?5to?5create?5icon@ 00461b80     glfw3:win32_window.obj
 0002:00025ba4       ??_C@_0BP@OHFKOFFD@Win32?3?5Failed?5to?5create?5cursor@ 00461ba4     glfw3:win32_window.obj
 0002:00025bcc       ??_C@_0CL@GPJNIICL@Win32?3?5Failed?5to?5register?5raw?5i@ 00461bcc     glfw3:win32_window.obj
 0002:00025c00       ??_C@_0CJ@JFEDIEDE@Win32?3?5Failed?5to?5remove?5raw?5inp@ 00461c00     glfw3:win32_window.obj
 0002:00025c34       ??_C@_19JBPKICJI@?$AAG?$AAL?$AAF?$AAW@ 00461c34     glfw3:win32_window.obj
 0002:00025c40       ??_C@_0CJ@GILDAIDE@Win32?3?5Failed?5to?5retrieve?5raw?5i@ 00461c40     glfw3:win32_window.obj
 0002:00025c74       ??_C@_0BP@BFHGHOIO@Win32?3?5Failed?5to?5create?5window@ 00461c74     glfw3:win32_window.obj
 0002:00025c9c       ??_C@_1BE@LDFMCOHA@?$AAG?$AAL?$AAF?$AAW?$AA_?$AAI?$AAC?$AAO?$AAN@ 00461c9c     glfw3:win32_window.obj
 0002:00025cb4       ??_C@_0CH@GAPNPCHF@Win32?3?5Failed?5to?5register?5windo@ 00461cb4     glfw3:win32_window.obj
 0002:00025ce4       ??_C@_0CI@LDEHPBDB@Win32?3?5Failed?5to?5create?5standar@ 00461ce4     glfw3:win32_window.obj
 0002:00025d14       ??_C@_0DG@CGDLBFFB@Win32?3?5Failed?5to?5allocate?5globa@ 00461d14     glfw3:win32_window.obj
 0002:00025d54       ??_C@_0CE@OHDHEPIL@Win32?3?5Failed?5to?5lock?5global?5ha@ 00461d54     glfw3:win32_window.obj
 0002:00025d80       ??_C@_0CA@FNCFBEIG@Win32?3?5Failed?5to?5open?5clipboard@ 00461d80     glfw3:win32_window.obj
 0002:00025da8       ??_C@_0CN@FGAGPCCP@Win32?3?5Failed?5to?5convert?5clipbo@ 00461da8     glfw3:win32_window.obj
 0002:00025de0       ??_C@_0CP@FOBJNCLA@vkGetPhysicalDeviceWin32Present@ 00461de0     glfw3:win32_window.obj
 0002:00025e18       ??_C@_0DO@PGEACBCJ@Win32?3?5Vulkan?5instance?5missing?5@ 00461e18     glfw3:win32_window.obj
 0002:00025e64       ??_C@_0BI@INMBJMIJ@vkCreateWin32SurfaceKHR@ 00461e64     glfw3:win32_window.obj
 0002:00025e80       ??_C@_0CL@LJNEEKEI@Win32?3?5Failed?5to?5create?5Vulkan?5@ 00461e80     glfw3:win32_window.obj
 0002:00025eb8       __real@405e000000000000    00461eb8     glfw3:win32_window.obj
 0002:00025ec8       __real@408f400000000000    00461ec8     glfw3:win32_window.obj
 0002:00025ee0       __xmm@80000000000000008000000000000000 00461ee0     glfw3:win32_window.obj
 0002:00025fc0       ??_C@_0N@JENFOGFI@XInput?5Wheel@ 00461fc0     glfw3:win32_joystick.obj
 0002:00025fd0       ??_C@_0BE@FABDLJKH@XInput?5Arcade?5Stick@ 00461fd0     glfw3:win32_joystick.obj
 0002:00025fe8       ??_C@_0BE@HBNNGLHP@XInput?5Flight?5Stick@ 00461fe8     glfw3:win32_joystick.obj
 0002:00026000       ??_C@_0BB@JDDMDGFO@XInput?5Dance?5Pad@ 00462000     glfw3:win32_joystick.obj
 0002:00026014       ??_C@_0O@IFDGNEHH@XInput?5Guitar@ 00462014     glfw3:win32_joystick.obj
 0002:00026024       ??_C@_0BA@LCMKGGHA@XInput?5Drum?5Kit@ 00462024     glfw3:win32_joystick.obj
 0002:00026038       ??_C@_0BJ@IIGAEGGE@Wireless?5Xbox?5Controller@ 00462038     glfw3:win32_joystick.obj
 0002:00026058       ??_C@_0BA@EPLGABLH@Xbox?5Controller@ 00462058     glfw3:win32_joystick.obj
 0002:0002606c       ??_C@_0BG@DGJLFNBN@Unknown?5XInput?5Device@ 0046206c     glfw3:win32_joystick.obj
 0002:00026088       ??_C@_03HAFBONIK@IG_@      00462088     glfw3:win32_joystick.obj
 0002:0002608c       ??_C@_0BP@OHJGLFIP@Win32?3?5Failed?5to?5create?5device@ 0046208c     glfw3:win32_joystick.obj
 0002:000260b4       ??_C@_0CI@MMBFOOEA@Win32?3?5Failed?5to?5set?5device?5dat@ 004620b4     glfw3:win32_joystick.obj
 0002:000260e4       ??_C@_0CL@JHIPHFAC@Win32?3?5Failed?5to?5query?5device?5c@ 004620e4     glfw3:win32_joystick.obj
 0002:00026118       ??_C@_0CG@JJEBGGIE@Win32?3?5Failed?5to?5set?5device?5axi@ 00462118     glfw3:win32_joystick.obj
 0002:00026148       ??_C@_0CK@FKJPIIOF@Win32?3?5Failed?5to?5enumerate?5devi@ 00462148     glfw3:win32_joystick.obj
 0002:0002617c       ??_C@_0DA@IIGLKABA@Win32?3?5Failed?5to?5convert?5joysti@ 0046217c     glfw3:win32_joystick.obj
 0002:000261b8       ??_C@_0CJ@NMCAPCBP@03000000?$CF02x?$CF02x0000?$CF02x?$CF02x000@ 004621b8     glfw3:win32_joystick.obj
 0002:000261ec       ??_C@_0DH@LCNJGHOP@05000000?$CF02x?$CF02x?$CF02x?$CF02x?$CF02x?$CF02@ 004621ec     glfw3:win32_joystick.obj
 0002:00026230       ??_C@_0CC@MGDCJJKB@Win32?3?5Failed?5to?5create?5interfa@ 00462230     glfw3:win32_joystick.obj
 0002:00026258       ??_C@_0CD@CBFNHKPK@78696e707574?$CF02x000000000000000@ 00462258     glfw3:win32_joystick.obj
 0002:00026284       ??_C@_0CJ@HDJDHLNO@Failed?5to?5enumerate?5DirectInput@ 00462284     glfw3:win32_joystick.obj
 0002:000262b8       ??_C@_0N@OJEJPFOD@504944564944@ 004622b8     glfw3:win32_joystick.obj
 0002:000262c8       ??_C@_0CB@BIHPPBFK@03000000?$CF?44s0000?$CF?44s00000000000@ 004622c8     glfw3:win32_joystick.obj
 0002:000262f0       __real@42ff0000            004622f0     glfw3:win32_joystick.obj
 0002:000262f4       __real@46ffff00            004622f4     glfw3:win32_joystick.obj
 0002:000262f8       __real@c6ffff00            004622f8     glfw3:win32_joystick.obj
 0002:00026300       __xmm@00000006000000020000000300000001 00462300     glfw3:win32_joystick.obj
 0002:00026320       __xmm@00000009000000080000000c00000004 00462320     glfw3:win32_joystick.obj
 0002:00026334       ??_C@_0CO@KALOHMEN@WGL?3?5Unknown?5pixel?5format?5attri@ 00462334     glfw3:wgl_context.obj
 0002:0002636c       ??_C@_0CP@FFKBMLDH@WGL?3?5Failed?5to?5retrieve?5pixel?5f@ 0046236c     glfw3:wgl_context.obj
 0002:000263a4       ??_C@_0DA@LMPKCOPB@WGL?3?5Failed?5to?5retrieve?5pixel?5f@ 004623a4     glfw3:wgl_context.obj
 0002:000263e0       ??_C@_0CF@OGLFKBHA@WGL?3?5Failed?5to?5describe?5pixel?5f@ 004623e0     glfw3:wgl_context.obj
 0002:0002640c       ??_C@_0DC@HFHALHIB@WGL?3?5The?5driver?5does?5not?5appear@ 0046240c     glfw3:wgl_context.obj
 0002:00026448       ??_C@_0CM@DGJKGOGD@WGL?3?5Failed?5to?5find?5a?5suitable?5@ 00462448     glfw3:wgl_context.obj
 0002:0002647c       ??_C@_0CE@FEGPCKPN@WGL?3?5Failed?5to?5make?5context?5cur@ 0046247c     glfw3:wgl_context.obj
 0002:000264a8       ??_C@_0CF@EKIADPFB@WGL?3?5Failed?5to?5clear?5current?5co@ 004624a8     glfw3:wgl_context.obj
 0002:000264d4       ??_C@_0N@DOKAJOHF@opengl32?4dll@ 004624d4     glfw3:wgl_context.obj
 0002:000264e4       ??_C@_0CB@FLGENKMO@WGL?3?5Failed?5to?5load?5opengl32?4dl@ 004624e4     glfw3:wgl_context.obj
 0002:0002650c       ??_C@_0BB@GHMBNOIP@wglCreateContext@ 0046250c     glfw3:wgl_context.obj
 0002:00026520       ??_C@_0BB@OGAIJNNO@wglDeleteContext@ 00462520     glfw3:wgl_context.obj
 0002:00026534       ??_C@_0BC@FFKMKEGM@wglGetProcAddress@ 00462534     glfw3:wgl_context.obj
 0002:0002654c       ??_C@_0BA@BMKCDCKD@wglGetCurrentDC@ 0046254c     glfw3:wgl_context.obj
 0002:00026560       ??_C@_0BF@HABDPBMA@wglGetCurrentContext@ 00462560     glfw3:wgl_context.obj
 0002:0002657c       ??_C@_0P@BBBFNDGG@wglMakeCurrent@ 0046257c     glfw3:wgl_context.obj
 0002:00026590       ??_C@_0O@GCGJMHDL@wglShareLists@ 00462590     glfw3:wgl_context.obj
 0002:000265a0       ??_C@_0DC@IPDIACJO@WGL?3?5Failed?5to?5set?5pixel?5format@ 004625a0     glfw3:wgl_context.obj
 0002:000265dc       ??_C@_0CE@KAEELGKL@WGL?3?5Failed?5to?5create?5dummy?5con@ 004625dc     glfw3:wgl_context.obj
 0002:00026608       ??_C@_0CK@JKJFDJLH@WGL?3?5Failed?5to?5make?5dummy?5conte@ 00462608     glfw3:wgl_context.obj
 0002:0002663c       ??_C@_0BK@HGDBIG@wglGetExtensionsStringEXT@ 0046263c     glfw3:wgl_context.obj
 0002:0002665c       ??_C@_0BK@JOBLJGNA@wglGetExtensionsStringARB@ 0046265c     glfw3:wgl_context.obj
 0002:0002667c       ??_C@_0BL@PDDHMPGF@wglCreateContextAttribsARB@ 0046267c     glfw3:wgl_context.obj
 0002:0002669c       ??_C@_0BD@IINOPBDD@wglSwapIntervalEXT@ 0046269c     glfw3:wgl_context.obj
 0002:000266b4       ??_C@_0BN@GDKHKIAN@wglGetPixelFormatAttribivARB@ 004626b4     glfw3:wgl_context.obj
 0002:000266d8       ??_C@_0BE@BMOJHNDI@WGL_ARB_multisample@ 004626d8     glfw3:wgl_context.obj
 0002:000266f0       ??_C@_0BJ@CIMJOHKL@WGL_ARB_framebuffer_sRGB@ 004626f0     glfw3:wgl_context.obj
 0002:00026710       ??_C@_0BJ@ODLLHDDH@WGL_EXT_framebuffer_sRGB@ 00462710     glfw3:wgl_context.obj
 0002:00026730       ??_C@_0BH@NCJDMLMG@WGL_ARB_create_context@ 00462730     glfw3:wgl_context.obj
 0002:0002674c       ??_C@_0BP@JAOBDJGN@WGL_ARB_create_context_profile@ 0046274c     glfw3:wgl_context.obj
 0002:00026774       ??_C@_0CD@FOMFMBIL@WGL_EXT_create_context_es2_prof@ 00462774     glfw3:wgl_context.obj
 0002:000267a0       ??_C@_0CC@BFGHOMNL@WGL_ARB_create_context_robustne@ 004627a0     glfw3:wgl_context.obj
 0002:000267c8       ??_C@_0CA@CJLAIOKE@WGL_ARB_create_context_no_error@ 004627c8     glfw3:wgl_context.obj
 0002:000267f0       ??_C@_0BF@NPDKPIKE@WGL_EXT_swap_control@ 004627f0     glfw3:wgl_context.obj
 0002:0002680c       ??_C@_0BD@KGLHBPN@WGL_EXT_colorspace@ 0046280c     glfw3:wgl_context.obj
 0002:00026824       ??_C@_0BF@OGGDOHFN@WGL_ARB_pixel_format@ 00462824     glfw3:wgl_context.obj
 0002:00026840       ??_C@_0BO@FABLLHKK@WGL_ARB_context_flush_control@ 00462840     glfw3:wgl_context.obj
 0002:00026864       ??_C@_0CG@GMPEPNKL@WGL?3?5Failed?5to?5retrieve?5DC?5for?5@ 00462864     glfw3:wgl_context.obj
 0002:00026894       ??_C@_0DG@EPNPJJLB@WGL?3?5Failed?5to?5retrieve?5PFD?5for@ 00462894     glfw3:wgl_context.obj
 0002:000268d4       ??_C@_0CJ@HAGOIHNO@WGL?3?5Failed?5to?5set?5selected?5pix@ 004628d4     glfw3:wgl_context.obj
 0002:00026908       ??_C@_0FN@NPOMMKHN@WGL?3?5A?5forward?5compatible?5OpenG@ 00462908     glfw3:wgl_context.obj
 0002:00026978       ??_C@_0FA@OHOPKHFK@WGL?3?5OpenGL?5profile?5requested?5b@ 00462978     glfw3:wgl_context.obj
 0002:000269d8       ??_C@_0EP@EKHGPGGO@WGL?3?5OpenGL?5ES?5requested?5but?5WG@ 004629d8     glfw3:wgl_context.obj
 0002:00026a38       ??_C@_0DC@CDLECLKD@WGL?3?5Driver?5does?5not?5support?5Op@ 00462a38     glfw3:wgl_context.obj
 0002:00026a74       ??_C@_0DF@NPMNAJFG@WGL?3?5Driver?5does?5not?5support?5Op@ 00462a74     glfw3:wgl_context.obj
 0002:00026ab4       ??_C@_0DK@CDBDDLLM@WGL?3?5Driver?5does?5not?5support?5th@ 00462ab4     glfw3:wgl_context.obj
 0002:00026b00       ??_C@_0EE@LGMAAPCC@WGL?3?5The?5share?5context?5is?5not?5c@ 00462b00     glfw3:wgl_context.obj
 0002:00026b54       ??_C@_0CF@GFMDJIA@WGL?3?5Failed?5to?5create?5OpenGL?5co@ 00462b54     glfw3:wgl_context.obj
 0002:00026b80       ??_C@_0CI@JNBCHAIF@WGL?3?5Failed?5to?5create?5OpenGL?5ES@ 00462b80     glfw3:wgl_context.obj
 0002:00026bb0       ??_C@_0DM@FCAOPKO@WGL?3?5Failed?5to?5enable?5sharing?5w@ 00462bb0     glfw3:wgl_context.obj
 0002:00026c00       __xmm@00002003000020130000200100002010 00462c00     glfw3:wgl_context.obj
 0002:00026c20       __xmm@00002018000020170000201600002015 00462c20     glfw3:wgl_context.obj
 0002:00026c40       __xmm@0000201c0000201b0000201a00002019 00462c40     glfw3:wgl_context.obj
 0002:00026c60       __xmm@0000201e0000201d0000202300002022 00462c60     glfw3:wgl_context.obj
 0002:00026c80       __xmm@0000202400002021000020200000201f 00462c80     glfw3:wgl_context.obj
 0002:00026c94       ??_C@_0CH@KLCPDMM@EGL?5is?5not?5or?5could?5not?5be?5init@ 00462c94     glfw3:egl_context.obj
 0002:00026cc4       ??_C@_0CH@MMCOKIKC@EGL?5cannot?5access?5a?5requested?5r@ 00462cc4     glfw3:egl_context.obj
 0002:00026cf4       ??_C@_0DN@GNDEENDO@EGL?5failed?5to?5allocate?5resource@ 00462cf4     glfw3:egl_context.obj
 0002:00026d40       ??_C@_0EO@EKFIJHGG@An?5unrecognized?5attribute?5or?5at@ 00462d40     glfw3:egl_context.obj
 0002:00026da0       ??_C@_0ED@GAJEHCGA@An?5EGLContext?5argument?5does?5not@ 00462da0     glfw3:egl_context.obj
 0002:00026df0       ??_C@_0EL@BBAGGFOK@An?5EGLConfig?5argument?5does?5not?5@ 00462df0     glfw3:egl_context.obj
 0002:00026e50       ??_C@_0GG@ODICGIHF@The?5current?5surface?5of?5the?5call@ 00462e50     glfw3:egl_context.obj
 0002:00026ed0       ??_C@_0EE@ICKHNPHB@An?5EGLDisplay?5argument?5does?5not@ 00462ed0     glfw3:egl_context.obj
 0002:00026f28       ??_C@_0FB@EPGEGHDL@An?5EGLSurface?5argument?5does?5not@ 00462f28     glfw3:egl_context.obj
 0002:00026f8c       ??_C@_0BL@OIILILNJ@Arguments?5are?5inconsistent@ 00462f8c     glfw3:egl_context.obj
 0002:00026fac       ??_C@_0CI@KAHNKLLC@One?5or?5more?5argument?5values?5are@ 00462fac     glfw3:egl_context.obj
 0002:00026fe0       ??_C@_0EE@NKCAIGPH@A?5NativePixmapType?5argument?5doe@ 00462fe0     glfw3:egl_context.obj
 0002:00027038       ??_C@_0EE@FBMMOIJB@A?5NativeWindowType?5argument?5doe@ 00463038     glfw3:egl_context.obj
 0002:0002708c       ??_C@_0DL@GNLICFMC@The?5application?5must?5destroy?5al@ 0046308c     glfw3:egl_context.obj
 0002:000270d4       ??_C@_0BJ@KDFAHDEK@ERROR?3?5UNKNOWN?5EGL?5ERROR@ 004630d4     glfw3:egl_context.obj
 0002:000270f4       ??_C@_0BM@KHOPPJNJ@EGL?3?5No?5EGLConfigs?5returned@ 004630f4     glfw3:egl_context.obj
 0002:00027118       ??_C@_0CI@MPJNGPNP@EGL?3?5Failed?5to?5make?5context?5cur@ 00463118     glfw3:egl_context.obj
 0002:00027148       ??_C@_0CJ@NBJEEEJD@EGL?3?5Failed?5to?5clear?5current?5co@ 00463148     glfw3:egl_context.obj
 0002:00027180       ??_C@_0EN@CIIGDABJ@EGL?3?5The?5context?5must?5be?5curren@ 00463180     glfw3:egl_context.obj
 0002:000271dc       ??_C@_0L@ELKKGGMD@libEGL?4dll@ 004631dc     glfw3:egl_context.obj
 0002:000271ec       ??_C@_07EAKGIKCB@EGL?4dll@ 004631ec     glfw3:egl_context.obj
 0002:000271f8       ??_C@_0BH@NFNALLIN@EGL?3?5Library?5not?5found@ 004631f8     glfw3:egl_context.obj
 0002:00027214       ??_C@_03LPIGJBNC@lib@      00463214     glfw3:egl_context.obj
 0002:00027218       ??_C@_0BD@MAEGKKAE@eglGetConfigAttrib@ 00463218     glfw3:egl_context.obj
 0002:00027230       ??_C@_0O@OMNEJBKO@eglGetConfigs@ 00463230     glfw3:egl_context.obj
 0002:00027240       ??_C@_0O@BMJFLKOA@eglGetDisplay@ 00463240     glfw3:egl_context.obj
 0002:00027250       ??_C@_0M@PPADKGOK@eglGetError@ 00463250     glfw3:egl_context.obj
 0002:00027260       ??_C@_0O@EEJFKEKH@eglInitialize@ 00463260     glfw3:egl_context.obj
 0002:00027270       ??_C@_0N@IGFNFAOP@eglTerminate@ 00463270     glfw3:egl_context.obj
 0002:00027280       ??_C@_0L@HJOCIPHF@eglBindAPI@ 00463280     glfw3:egl_context.obj
 0002:00027290       ??_C@_0BB@KEKMNHDF@eglCreateContext@ 00463290     glfw3:egl_context.obj
 0002:000272a4       ??_C@_0BC@ICHKG@eglDestroySurface@ 004632a4     glfw3:egl_context.obj
 0002:000272bc       ??_C@_0BC@BNOBCLNJ@eglDestroyContext@ 004632bc     glfw3:egl_context.obj
 0002:000272d4       ??_C@_0BH@MDMCFBDG@eglCreateWindowSurface@ 004632d4     glfw3:egl_context.obj
 0002:000272f0       ??_C@_0P@PNPBPNLI@eglMakeCurrent@ 004632f0     glfw3:egl_context.obj
 0002:00027304       ??_C@_0P@DEBOOHKH@eglSwapBuffers@ 00463304     glfw3:egl_context.obj
 0002:00027318       ??_C@_0BA@BGJPOLDF@eglSwapInterval@ 00463318     glfw3:egl_context.obj
 0002:0002732c       ??_C@_0P@HJKEKLKD@eglQueryString@ 0046332c     glfw3:egl_context.obj
 0002:00027340       ??_C@_0BC@HONLJDPH@eglGetProcAddress@ 00463340     glfw3:egl_context.obj
 0002:00027358       ??_C@_0CK@DCPJCPHH@EGL?3?5Failed?5to?5load?5required?5en@ 00463358     glfw3:egl_context.obj
 0002:0002738c       ??_C@_0CD@CODEPNKE@EGL?3?5Failed?5to?5get?5EGL?5display?3@ 0046338c     glfw3:egl_context.obj
 0002:000273b8       ??_C@_0CC@DOIEFDD@EGL?3?5Failed?5to?5initialize?5EGL?3?5@ 004633b8     glfw3:egl_context.obj
 0002:000273e0       ??_C@_0BH@GIBFIFPN@EGL_KHR_create_context@ 004633e0     glfw3:egl_context.obj
 0002:000273fc       ??_C@_0CA@OJFEOPKP@EGL_KHR_create_context_no_error@ 004633fc     glfw3:egl_context.obj
 0002:00027424       ??_C@_0BG@GOAKKGGB@EGL_KHR_gl_colorspace@ 00463424     glfw3:egl_context.obj
 0002:00027440       ??_C@_0BP@CDGGFNNF@EGL_KHR_get_all_proc_addresses@ 00463440     glfw3:egl_context.obj
 0002:00027468       ??_C@_0BO@IDEEMGNC@EGL_KHR_context_flush_control@ 00463468     glfw3:egl_context.obj
 0002:0002748c       ??_C@_0BH@PDIOJKKP@EGL?3?5API?5not?5available@ 0046348c     glfw3:egl_context.obj
 0002:000274a8       ??_C@_0CJ@JPDPLHCM@EGL?3?5Failed?5to?5find?5a?5suitable?5@ 004634a8     glfw3:egl_context.obj
 0002:000274dc       ??_C@_0CC@NIBJMOI@EGL?3?5Failed?5to?5bind?5OpenGL?5ES?3?5@ 004634dc     glfw3:egl_context.obj
 0002:00027504       ??_C@_0BP@PHOHHIJJ@EGL?3?5Failed?5to?5bind?5OpenGL?3?5?$CFs@ 00463504     glfw3:egl_context.obj
 0002:0002752c       ??_C@_0CC@GOIKODMM@EGL?3?5Failed?5to?5create?5context?3?5@ 0046352c     glfw3:egl_context.obj
 0002:00027554       ??_C@_0CJ@MHLGDLLP@EGL?3?5Failed?5to?5create?5window?5su@ 00463554     glfw3:egl_context.obj
 0002:00027588       ??_C@_0O@KOJFNJDA@GLESv1_CM?4dll@ 00463588     glfw3:egl_context.obj
 0002:00027598       ??_C@_0P@MADFBLIB@libGLES_CM?4dll@ 00463598     glfw3:egl_context.obj
 0002:000275ac       ??_C@_0L@CEBLLDFF@GLESv2?4dll@ 004635ac     glfw3:egl_context.obj
 0002:000275bc       ??_C@_0O@HFAAEHFL@libGLESv2?4dll@ 004635bc     glfw3:egl_context.obj
 0002:000275cc       ??_C@_0CD@JDEAKJCI@EGL?3?5Failed?5to?5load?5client?5libr@ 004635cc     glfw3:egl_context.obj
 0002:000275f8       ??_C@_0CH@CKFBCGDL@OSMesa?3?5Failed?5to?5make?5context?5@ 004635f8     glfw3:osmesa_context.obj
 0002:00027628       ??_C@_0O@DJDONBGH@libOSMesa?4dll@ 00463628     glfw3:osmesa_context.obj
 0002:00027638       ??_C@_0L@GICFCFGJ@OSMesa?4dll@ 00463638     glfw3:osmesa_context.obj
 0002:00027648       ??_C@_0BK@MLLMMLGE@OSMesa?3?5Library?5not?5found@ 00463648     glfw3:osmesa_context.obj
 0002:00027668       ??_C@_0BH@IPANDFMH@OSMesaCreateContextExt@ 00463668     glfw3:osmesa_context.obj
 0002:00027684       ??_C@_0BL@MIAEELOL@OSMesaCreateContextAttribs@ 00463684     glfw3:osmesa_context.obj
 0002:000276a4       ??_C@_0BF@OOKNCFMF@OSMesaDestroyContext@ 004636a4     glfw3:osmesa_context.obj
 0002:000276c0       ??_C@_0BC@HEACFLN@OSMesaMakeCurrent@ 004636c0     glfw3:osmesa_context.obj
 0002:000276d8       ??_C@_0BF@HHLAJKBF@OSMesaGetColorBuffer@ 004636d8     glfw3:osmesa_context.obj
 0002:000276f4       ??_C@_0BF@BPPLLLDH@OSMesaGetDepthBuffer@ 004636f4     glfw3:osmesa_context.obj
 0002:00027710       ??_C@_0BF@INJHJNOL@OSMesaGetProcAddress@ 00463710     glfw3:osmesa_context.obj
 0002:0002772c       ??_C@_0CN@PEBHJDOE@OSMesa?3?5Failed?5to?5load?5required@ 0046372c     glfw3:osmesa_context.obj
 0002:00027764       ??_C@_0CN@JHECHMPF@OSMesa?3?5OpenGL?5ES?5is?5not?5availa@ 00463764     glfw3:osmesa_context.obj
 0002:0002779c       ??_C@_0DC@KKLJAJOK@OSMesa?3?5Forward?9compatible?5cont@ 0046379c     glfw3:osmesa_context.obj
 0002:000277d8       ??_C@_0CE@OJEBIEPE@OSMesa?3?5OpenGL?5profiles?5unavail@ 004637d8     glfw3:osmesa_context.obj
 0002:00027804       ??_C@_0CB@LDOHHBIH@OSMesa?3?5Failed?5to?5create?5contex@ 00463804     glfw3:osmesa_context.obj
 0002:0002782c       ??_C@_0CI@NAJLKNKH@OSMesa?3?5Failed?5to?5retrieve?5colo@ 0046382c     glfw3:osmesa_context.obj
 0002:0002785c       ??_C@_0CI@FJDKHGC@OSMesa?3?5Failed?5to?5retrieve?5dept@ 0046385c     glfw3:osmesa_context.obj
 0002:00027930       ??_7exception@std@@6B@     00463930     MSVCRT:throw_bad_alloc.obj
 0002:0002793c       ??_C@_0BC@EOODALEL@Unknown?5exception?$AA@ 0046393c     MSVCRT:throw_bad_alloc.obj
 0002:00027958       ??_7bad_alloc@std@@6B@     00463958     MSVCRT:throw_bad_alloc.obj
 0002:00027964       ??_C@_0P@GHFPNOJB@bad?5allocation?$AA@ 00463964     MSVCRT:throw_bad_alloc.obj
 0002:0002797c       ??_7bad_array_new_length@std@@6B@ 0046397c     MSVCRT:throw_bad_alloc.obj
 0002:00027988       ??_C@_0BF@KINCDENJ@bad?5array?5new?5length?$AA@ 00463988     MSVCRT:throw_bad_alloc.obj
 0002:000279b4       ??_7type_info@@6B@         004639b4     MSVCRT:std_type_info_static.obj
 0002:000279f8       __load_config_used         004639f8     MSVCRT:loadcfg.obj
 0002:00027ea0       ??_R4exception@std@@6B@    00463ea0     MSVCRT:throw_bad_alloc.obj
 0002:00027eb8       ??_R3exception@std@@8      00463eb8     MSVCRT:throw_bad_alloc.obj
 0002:00027ecc       ??_R2exception@std@@8      00463ecc     MSVCRT:throw_bad_alloc.obj
 0002:00027ed4       ??_R1A@?0A@EA@exception@std@@8 00463ed4     MSVCRT:throw_bad_alloc.obj
 0002:00027ef8       ??_R4bad_alloc@std@@6B@    00463ef8     MSVCRT:throw_bad_alloc.obj
 0002:00027f10       ??_R3bad_alloc@std@@8      00463f10     MSVCRT:throw_bad_alloc.obj
 0002:00027f24       ??_R2bad_alloc@std@@8      00463f24     MSVCRT:throw_bad_alloc.obj
 0002:00027f30       ??_R1A@?0A@EA@bad_alloc@std@@8 00463f30     MSVCRT:throw_bad_alloc.obj
 0002:00027f54       ??_R4bad_array_new_length@std@@6B@ 00463f54     MSVCRT:throw_bad_alloc.obj
 0002:00027f6c       ??_R3bad_array_new_length@std@@8 00463f6c     MSVCRT:throw_bad_alloc.obj
 0002:00027f80       ??_R2bad_array_new_length@std@@8 00463f80     MSVCRT:throw_bad_alloc.obj
 0002:00027f90       ??_R1A@?0A@EA@bad_array_new_length@std@@8 00463f90     MSVCRT:throw_bad_alloc.obj
 0002:00027fb4       ??_R4type_info@@6B@        00463fb4     MSVCRT:std_type_info_static.obj
 0002:00027fcc       ??_R3type_info@@8          00463fcc     MSVCRT:std_type_info_static.obj
 0002:00027fe0       ??_R2type_info@@8          00463fe0     MSVCRT:std_type_info_static.obj
 0002:00027fe8       ??_R1A@?0A@EA@type_info@@8 00463fe8     MSVCRT:std_type_info_static.obj
 0002:00028120       ___safe_se_handler_table   00464120     <linker-defined>
 0002:0002841c       ___rtc_iaa                 0046441c     MSVCRT:_initsect_.obj
 0002:00028520       ___rtc_izz                 00464520     MSVCRT:_initsect_.obj
 0002:00028624       ___rtc_taa                 00464624     MSVCRT:_initsect_.obj
 0002:00028728       ___rtc_tzz                 00464728     MSVCRT:_initsect_.obj
 0002:00028db8       __TI2?AVbad_alloc@std@@    00464db8     MSVCRT:throw_bad_alloc.obj
 0002:00028dcc       __CTA2?AVbad_alloc@std@@   00464dcc     MSVCRT:throw_bad_alloc.obj
 0002:00028ddc       __CT??_R0?AVbad_alloc@std@@@8??0bad_alloc@std@@QAE@ABV01@@Z12 00464ddc     MSVCRT:throw_bad_alloc.obj
 0002:00028dfc       __CT??_R0?AVexception@std@@@8??0exception@std@@QAE@ABV01@@Z12 00464dfc     MSVCRT:throw_bad_alloc.obj
 0002:00028e1c       __TI3?AVbad_array_new_length@std@@ 00464e1c     MSVCRT:throw_bad_alloc.obj
 0002:00028e30       __CTA3?AVbad_array_new_length@std@@ 00464e30     MSVCRT:throw_bad_alloc.obj
 0002:00028e44       __CT??_R0?AVbad_array_new_length@std@@@8??0bad_array_new_length@std@@QAE@ABV01@@Z12 00464e44     MSVCRT:throw_bad_alloc.obj
 0003:00002340       __glfwDefaultMappings      00468340     glfw3:init.obj
 0003:00002e54       ___scrt_native_dllmain_reason 00468e54     MSVCRT:utility.obj
 0003:00002e60       ___security_cookie_complement 00468e60     MSVCRT:gs_cookie.obj
 0003:00002e64       ___security_cookie         00468e64     MSVCRT:gs_cookie.obj
 0003:00002e6c       __fltused                  00468e6c     MSVCRT:fltused.obj
 0003:00002e70       ___isa_enabled             00468e70     MSVCRT:_cpu_disp_.obj
 0003:00002e80       ___scrt_default_matherr    00468e80     MSVCRT:matherr.obj
 0003:00002e84       ___scrt_ucrt_dll_is_in_use 00468e84     MSVCRT:ucrt_stubs.obj
 0003:00002f98       ??_R0?AVbad_alloc@std@@@8  00468f98     MSVCRT:throw_bad_alloc.obj
 0003:00002fbc       ??_R0?AVexception@std@@@8  00468fbc     MSVCRT:throw_bad_alloc.obj
 0003:00002fe0       ??_R0?AVbad_array_new_length@std@@@8 00468fe0     MSVCRT:throw_bad_alloc.obj
 0003:00003010       ??_R0?AVtype_info@@@8      00469010     MSVCRT:std_type_info_static.obj
 0003:0000315c       ?vert_Particle@@3V?$basic_string@DU?$char_traits@D@std@@V?$allocator@D@2@@std@@A 0046915c     win32_main.obj
 0003:00003174       ?frag_Particle@@3V?$basic_string@DU?$char_traits@D@std@@V?$allocator@D@2@@std@@A 00469174     win32_main.obj
 0003:000031a8       _glad_glColorMask          004691a8     glad.obj
 0003:000031ac       _glad_glUniform3f          004691ac     glad.obj
 0003:000031b0       _glad_glDepthMask          004691b0     glad.obj
 0003:000031b4       _glad_glDisable            004691b4     glad.obj
 0003:000031b8       _glad_glFramebufferTexture3D 004691b8     glad.obj
 0003:000031bc       _glad_glEnable             004691bc     glad.obj
 0003:000031c0       _glad_glUniform4f          004691c0     glad.obj
 0003:000031c4       _glad_glFinish             004691c4     glad.obj
 0003:000031c8       _glad_glFlush              004691c8     glad.obj
 0003:000031cc       _glad_glFramebufferRenderbuffer 004691cc     glad.obj
 0003:000031d0       _glad_glUniform1i          004691d0     glad.obj
 0003:000031d4       _glad_glBlendFunc          004691d4     glad.obj
 0003:000031d8       _glad_glUniform2i          004691d8     glad.obj
 0003:000031dc       _glad_glLogicOp            004691dc     glad.obj
 0003:000031e0       _glad_glGetFramebufferAttachmentParameteriv 004691e0     glad.obj
 0003:000031e4       _glad_glGenerateMipmap     004691e4     glad.obj
 0003:000031e8       _glad_glStencilFunc        004691e8     glad.obj
 0003:000031ec       _glad_glUniform3i          004691ec     glad.obj
 0003:000031f0       _glad_glStencilOp          004691f0     glad.obj
 0003:000031f4       _glad_glDepthFunc          004691f4     glad.obj
 0003:000031f8       _glad_glUniform4i          004691f8     glad.obj
 0003:000031fc       _glad_glPixelStoref        004691fc     glad.obj
 0003:00003200       _glad_glBlitFramebuffer    00469200     glad.obj
 0003:00003204       _glad_glUniform1fv         00469204     glad.obj
 0003:00003208       _glad_glPixelStorei        00469208     glad.obj
 0003:0000320c       _glad_glReadBuffer         0046920c     glad.obj
 0003:00003210       _glad_glUniform2fv         00469210     glad.obj
 0003:00003214       _glad_glRenderbufferStorageMultisample 00469214     glad.obj
 0003:00003218       _glad_glUniform3fv         00469218     glad.obj
 0003:0000321c       _glad_glReadPixels         0046921c     glad.obj
 0003:00003220       _glad_glFramebufferTextureLayer 00469220     glad.obj
 0003:00003224       _glad_glUniform4fv         00469224     glad.obj
 0003:00003228       _glad_glGetBooleanv        00469228     glad.obj
 0003:0000322c       _glad_glUniform1iv         0046922c     glad.obj
 0003:00003230       _glad_glMapBufferRange     00469230     glad.obj
 0003:00003234       _glad_glGetDoublev         00469234     glad.obj
 0003:00003238       _glad_glGetError           00469238     glad.obj
 0003:0000323c       _glad_glUniform2iv         0046923c     glad.obj
 0003:00003240       _glad_glFlushMappedBufferRange 00469240     glad.obj
 0003:00003244       _glad_glGetFloatv          00469244     glad.obj
 0003:00003248       _glad_glBindVertexArray    00469248     glad.obj
 0003:0000324c       _glad_glUniform3iv         0046924c     glad.obj
 0003:00003250       _glad_glGetIntegerv        00469250     glad.obj
 0003:00003254       _glad_glDeleteVertexArrays 00469254     glad.obj
 0003:00003258       _glad_glGetString          00469258     glad.obj
 0003:0000325c       _glad_glUniform4iv         0046925c     glad.obj
 0003:00003260       _glad_glGenVertexArrays    00469260     glad.obj
 0003:00003264       _glad_glIsVertexArray      00469264     glad.obj
 0003:00003268       _GLAD_GL_VERSION_3_1       00469268     glad.obj
 0003:0000326c       _glad_glGetTexImage        0046926c     glad.obj
 0003:00003270       _glad_glUniformMatrix2fv   00469270     glad.obj
 0003:00003274       _glad_glDrawArraysInstanced 00469274     glad.obj
 0003:00003278       _glad_glGetTexParameterfv  00469278     glad.obj
 0003:0000327c       _glad_glUniformMatrix3fv   0046927c     glad.obj
 0003:00003280       _glad_glGetTexParameteriv  00469280     glad.obj
 0003:00003284       _glad_glDrawElementsInstanced 00469284     glad.obj
 0003:00003288       _glad_glUniformMatrix4fv   00469288     glad.obj
 0003:0000328c       _glad_glValidateProgram    0046928c     glad.obj
 0003:00003290       _glad_glGetTexLevelParameterfv 00469290     glad.obj
 0003:00003294       _glad_glTexBuffer          00469294     glad.obj
 0003:00003298       _glad_glPrimitiveRestartIndex 00469298     glad.obj
 0003:0000329c       _glad_glVertexAttrib1d     0046929c     glad.obj
 0003:000032a0       _glad_glGetTexLevelParameteriv 004692a0     glad.obj
 0003:000032a4       _glad_glVertexAttrib1dv    004692a4     glad.obj
 0003:000032a8       _glad_glIsEnabled          004692a8     glad.obj
 0003:000032ac       _glad_glCopyBufferSubData  004692ac     glad.obj
 0003:000032b0       _glad_glVertexAttrib1f     004692b0     glad.obj
 0003:000032b4       _glad_glDepthRange         004692b4     glad.obj
 0003:000032b8       _glad_glVertexAttrib1fv    004692b8     glad.obj
 0003:000032bc       _glad_glGetUniformIndices  004692bc     glad.obj
 0003:000032c0       _glad_glVertexAttrib1s     004692c0     glad.obj
 0003:000032c4       _glad_glViewport           004692c4     glad.obj
 0003:000032c8       _GLAD_GL_VERSION_1_1       004692c8     glad.obj
 0003:000032cc       _glad_glVertexAttrib1sv    004692cc     glad.obj
 0003:000032d0       _glad_glGetActiveUniformsiv 004692d0     glad.obj
 0003:000032d4       _glad_glDrawArrays         004692d4     glad.obj
 0003:000032d8       _glad_glVertexAttrib2d     004692d8     glad.obj
 0003:000032dc       _glad_glDrawElements       004692dc     glad.obj
 0003:000032e0       _glad_glVertexAttrib2dv    004692e0     glad.obj
 0003:000032e4       _glad_glGetActiveUniformName 004692e4     glad.obj
 0003:000032e8       _glad_glPolygonOffset      004692e8     glad.obj
 0003:000032ec       _glad_glGetUniformBlockIndex 004692ec     glad.obj
 0003:000032f0       _glad_glVertexAttrib2f     004692f0     glad.obj
 0003:000032f4       _glad_glVertexAttrib2fv    004692f4     glad.obj
 0003:000032f8       _glad_glGetActiveUniformBlockiv 004692f8     glad.obj
 0003:000032fc       _glad_glVertexAttrib2s     004692fc     glad.obj
 0003:00003300       _glad_glCopyTexImage1D     00469300     glad.obj
 0003:00003304       _glad_glVertexAttrib2sv    00469304     glad.obj
 0003:00003308       _glad_glGetActiveUniformBlockName 00469308     glad.obj
 0003:0000330c       _glad_glUniformBlockBinding 0046930c     glad.obj
 0003:00003310       _glad_glVertexAttrib3d     00469310     glad.obj
 0003:00003314       _GLAD_GL_VERSION_3_2       00469314     glad.obj
 0003:00003318       _glad_glCopyTexImage2D     00469318     glad.obj
 0003:0000331c       _glad_glVertexAttrib3dv    0046931c     glad.obj
 0003:00003320       _glad_glDrawElementsBaseVertex 00469320     glad.obj
 0003:00003324       _glad_glVertexAttrib3f     00469324     glad.obj
 0003:00003328       _glad_glCopyTexSubImage1D  00469328     glad.obj
 0003:0000332c       _glad_glVertexAttrib3fv    0046932c     glad.obj
 0003:00003330       _glad_glDrawRangeElementsBaseVertex 00469330     glad.obj
 0003:00003334       _glad_glVertexAttrib3s     00469334     glad.obj
 0003:00003338       _glad_glCopyTexSubImage2D  00469338     glad.obj
 0003:0000333c       _glad_glVertexAttrib3sv    0046933c     glad.obj
 0003:00003340       _glad_glDrawElementsInstancedBaseVertex 00469340     glad.obj
 0003:00003344       _glad_glVertexAttrib4Nbv   00469344     glad.obj
 0003:00003348       _glad_glTexSubImage1D      00469348     glad.obj
 0003:0000334c       _glad_glVertexAttrib4Niv   0046934c     glad.obj
 0003:00003350       _glad_glVertexAttrib4Nsv   00469350     glad.obj
 0003:00003354       _glad_glMultiDrawElementsBaseVertex 00469354     glad.obj
 0003:00003358       _glad_glProvokingVertex    00469358     glad.obj
 0003:0000335c       _glad_glFenceSync          0046935c     glad.obj
 0003:00003360       _glad_glVertexAttrib4Nub   00469360     glad.obj
 0003:00003364       _glad_glTexSubImage2D      00469364     glad.obj
 0003:00003368       _glad_glIsSync             00469368     glad.obj
 0003:0000336c       _glad_glVertexAttrib4Nubv  0046936c     glad.obj
 0003:00003370       _glad_glDeleteSync         00469370     glad.obj
 0003:00003374       _glad_glBindTexture        00469374     glad.obj
 0003:00003378       _glad_glVertexAttrib4Nuiv  00469378     glad.obj
 0003:0000337c       _glad_glDeleteTextures     0046937c     glad.obj
 0003:00003380       _glad_glClientWaitSync     00469380     glad.obj
 0003:00003384       _glad_glVertexAttrib4Nusv  00469384     glad.obj
 0003:00003388       _glad_glGenTextures        00469388     glad.obj
 0003:0000338c       _glad_glWaitSync           0046938c     glad.obj
 0003:00003390       _glad_glIsTexture          00469390     glad.obj
 0003:00003394       _glad_glVertexAttrib4bv    00469394     glad.obj
 0003:00003398       _GLAD_GL_VERSION_1_2       00469398     glad.obj
 0003:0000339c       _glad_glGetInteger64v      0046939c     glad.obj
 0003:000033a0       _glad_glVertexAttrib4d     004693a0     glad.obj
 0003:000033a4       _glad_glDrawRangeElements  004693a4     glad.obj
 0003:000033a8       _glad_glGetSynciv          004693a8     glad.obj
 0003:000033ac       _glad_glVertexAttrib4dv    004693ac     glad.obj
 0003:000033b0       _glad_glGetInteger64i_v    004693b0     glad.obj
 0003:000033b4       _glad_glVertexAttrib4f     004693b4     glad.obj
 0003:000033b8       _glad_glGetBufferParameteri64v 004693b8     glad.obj
 0003:000033bc       _glad_glVertexAttrib4fv    004693bc     glad.obj
 0003:000033c0       _glad_glTexImage3D         004693c0     glad.obj
 0003:000033c4       _glad_glFramebufferTexture 004693c4     glad.obj
 0003:000033c8       _glad_glVertexAttrib4iv    004693c8     glad.obj
 0003:000033cc       _glad_glVertexAttrib4s     004693cc     glad.obj
 0003:000033d0       _glad_glTexImage2DMultisample 004693d0     glad.obj
 0003:000033d4       _glad_glVertexAttrib4sv    004693d4     glad.obj
 0003:000033d8       _glad_glTexSubImage3D      004693d8     glad.obj
 0003:000033dc       _glad_glVertexAttrib4ubv   004693dc     glad.obj
 0003:000033e0       _glad_glTexImage3DMultisample 004693e0     glad.obj
 0003:000033e4       _glad_glVertexAttrib4uiv   004693e4     glad.obj
 0003:000033e8       _glad_glVertexAttrib4usv   004693e8     glad.obj
 0003:000033ec       _glad_glGetMultisamplefv   004693ec     glad.obj
 0003:000033f0       _glad_glCopyTexSubImage3D  004693f0     glad.obj
 0003:000033f4       _GLAD_GL_VERSION_1_3       004693f4     glad.obj
 0003:000033f8       _glad_glActiveTexture      004693f8     glad.obj
 0003:000033fc       _glad_glSampleMaski        004693fc     glad.obj
 0003:00003400       _GLAD_GL_VERSION_3_3       00469400     glad.obj
 0003:00003404       _glad_glSampleCoverage     00469404     glad.obj
 0003:00003408       _glad_glVertexAttribPointer 00469408     glad.obj
 0003:0000340c       _GLAD_GL_VERSION_2_1       0046940c     glad.obj
 0003:00003410       _glad_glBindFragDataLocationIndexed 00469410     glad.obj
 0003:00003414       _glad_glUniformMatrix2x3fv 00469414     glad.obj
 0003:00003418       _glad_glGetFragDataIndex   00469418     glad.obj
 0003:0000341c       _glad_glGenSamplers        0046941c     glad.obj
 0003:00003420       _glad_glCompressedTexImage3D 00469420     glad.obj
 0003:00003424       _glad_glUniformMatrix3x2fv 00469424     glad.obj
 0003:00003428       _glad_glDeleteSamplers     00469428     glad.obj
 0003:0000342c       _glad_glIsSampler          0046942c     glad.obj
 0003:00003430       _glad_glUniformMatrix2x4fv 00469430     glad.obj
 0003:00003434       _glad_glBindSampler        00469434     glad.obj
 0003:00003438       _glad_glCompressedTexImage2D 00469438     glad.obj
 0003:0000343c       _glad_glUniformMatrix4x2fv 0046943c     glad.obj
 0003:00003440       _glad_glSamplerParameteri  00469440     glad.obj
 0003:00003444       _glad_glSamplerParameteriv 00469444     glad.obj
 0003:00003448       _glad_glUniformMatrix3x4fv 00469448     glad.obj
 0003:0000344c       _glad_glCompressedTexImage1D 0046944c     glad.obj
 0003:00003450       _glad_glSamplerParameterf  00469450     glad.obj
 0003:00003454       _glad_glUniformMatrix4x3fv 00469454     glad.obj
 0003:00003458       _GLAD_GL_VERSION_3_0       00469458     glad.obj
 0003:0000345c       _glad_glSamplerParameterfv 0046945c     glad.obj
 0003:00003460       _glad_glSamplerParameterIiv 00469460     glad.obj
 0003:00003464       _glad_glColorMaski         00469464     glad.obj
 0003:00003468       _glad_glCompressedTexSubImage3D 00469468     glad.obj
 0003:0000346c       _glad_glSamplerParameterIuiv 0046946c     glad.obj
 0003:00003470       _glad_glGetBooleani_v      00469470     glad.obj
 0003:00003474       _glad_glGetSamplerParameteriv 00469474     glad.obj
 0003:00003478       _glad_glGetIntegeri_v      00469478     glad.obj
 0003:0000347c       _glad_glEnablei            0046947c     glad.obj
 0003:00003480       _glad_glGetSamplerParameterIiv 00469480     glad.obj
 0003:00003484       _glad_glCompressedTexSubImage2D 00469484     glad.obj
 0003:00003488       _glad_glDisablei           00469488     glad.obj
 0003:0000348c       _glad_glGetSamplerParameterfv 0046948c     glad.obj
 0003:00003490       _glad_glIsEnabledi         00469490     glad.obj
 0003:00003494       _glad_glBeginTransformFeedback 00469494     glad.obj
 0003:00003498       _glad_glGetSamplerParameterIuiv 00469498     glad.obj
 0003:0000349c       _glad_glCompressedTexSubImage1D 0046949c     glad.obj
 0003:000034a0       _glad_glEndTransformFeedback 004694a0     glad.obj
 0003:000034a4       _glad_glQueryCounter       004694a4     glad.obj
 0003:000034a8       _glad_glGetCompressedTexImage 004694a8     glad.obj
 0003:000034ac       _GLAD_GL_VERSION_1_4       004694ac     glad.obj
 0003:000034b0       _glad_glGetQueryObjecti64v 004694b0     glad.obj
 0003:000034b4       _glad_glBindBufferRange    004694b4     glad.obj
 0003:000034b8       _glad_glBlendFuncSeparate  004694b8     glad.obj
 0003:000034bc       _glad_glGetQueryObjectui64v 004694bc     glad.obj
 0003:000034c0       _glad_glBindBufferBase     004694c0     glad.obj
 0003:000034c4       _glad_glVertexAttribDivisor 004694c4     glad.obj
 0003:000034c8       _glad_glMultiDrawArrays    004694c8     glad.obj
 0003:000034cc       _glad_glTransformFeedbackVaryings 004694cc     glad.obj
 0003:000034d0       _glad_glVertexAttribP1ui   004694d0     glad.obj
 0003:000034d4       _glad_glMultiDrawElements  004694d4     glad.obj
 0003:000034d8       _glad_glPointParameterf    004694d8     glad.obj
 0003:000034dc       _glad_glGetTransformFeedbackVarying 004694dc     glad.obj
 0003:000034e0       _glad_glVertexAttribP1uiv  004694e0     glad.obj
 0003:000034e4       _glad_glClampColor         004694e4     glad.obj
 0003:000034e8       _glad_glPointParameterfv   004694e8     glad.obj
 0003:000034ec       _glad_glVertexAttribP2ui   004694ec     glad.obj
 0003:000034f0       _glad_glPointParameteri    004694f0     glad.obj
 0003:000034f4       _glad_glBeginConditionalRender 004694f4     glad.obj
 0003:000034f8       _glad_glEndConditionalRender 004694f8     glad.obj
 0003:000034fc       _glad_glPointParameteriv   004694fc     glad.obj
 0003:00003500       _glad_glVertexAttribP2uiv  00469500     glad.obj
 0003:00003504       _glad_glVertexAttribIPointer 00469504     glad.obj
 0003:00003508       _glad_glBlendColor         00469508     glad.obj
 0003:0000350c       _glad_glVertexAttribP3ui   0046950c     glad.obj
 0003:00003510       _glad_glBlendEquation      00469510     glad.obj
 0003:00003514       _GLAD_GL_VERSION_1_5       00469514     glad.obj
 0003:00003518       _glad_glGetVertexAttribIiv 00469518     glad.obj
 0003:0000351c       _glad_glGenQueries         0046951c     glad.obj
 0003:00003520       _glad_glVertexAttribP3uiv  00469520     glad.obj
 0003:00003524       _glad_glGetVertexAttribIuiv 00469524     glad.obj
 0003:00003528       _glad_glDeleteQueries      00469528     glad.obj
 0003:0000352c       _glad_glVertexAttribI1i    0046952c     glad.obj
 0003:00003530       _glad_glIsQuery            00469530     glad.obj
 0003:00003534       _glad_glVertexAttribP4ui   00469534     glad.obj
 0003:00003538       _glad_glBeginQuery         00469538     glad.obj
 0003:0000353c       _glad_glVertexAttribI2i    0046953c     glad.obj
 0003:00003540       _glad_glEndQuery           00469540     glad.obj
 0003:00003544       _glad_glVertexAttribP4uiv  00469544     glad.obj
 0003:00003548       _glad_glVertexP2ui         00469548     glad.obj
 0003:0000354c       _glad_glGetQueryiv         0046954c     glad.obj
 0003:00003550       _glad_glVertexAttribI3i    00469550     glad.obj
 0003:00003554       _glad_glVertexP2uiv        00469554     glad.obj
 0003:00003558       _glad_glGetQueryObjectiv   00469558     glad.obj
 0003:0000355c       _glad_glVertexP3ui         0046955c     glad.obj
 0003:00003560       _glad_glVertexAttribI4i    00469560     glad.obj
 0003:00003564       _glad_glGetQueryObjectuiv  00469564     glad.obj
 0003:00003568       _glad_glVertexP3uiv        00469568     glad.obj
 0003:0000356c       _glad_glVertexAttribI1ui   0046956c     glad.obj
 0003:00003570       _glad_glBindBuffer         00469570     glad.obj
 0003:00003574       _glad_glVertexP4ui         00469574     glad.obj
 0003:00003578       _glad_glVertexAttribI2ui   00469578     glad.obj
 0003:0000357c       _glad_glDeleteBuffers      0046957c     glad.obj
 0003:00003580       _glad_glVertexP4uiv        00469580     glad.obj
 0003:00003584       _glad_glGenBuffers         00469584     glad.obj
 0003:00003588       _glad_glTexCoordP1ui       00469588     glad.obj
 0003:0000358c       _glad_glVertexAttribI3ui   0046958c     glad.obj
 0003:00003590       _glad_glIsBuffer           00469590     glad.obj
 0003:00003594       _glad_glTexCoordP1uiv      00469594     glad.obj
 0003:00003598       _glad_glTexCoordP2ui       00469598     glad.obj
 0003:0000359c       _glad_glVertexAttribI4ui   0046959c     glad.obj
 0003:000035a0       _glad_glBufferData         004695a0     glad.obj
 0003:000035a4       _glad_glTexCoordP2uiv      004695a4     glad.obj
 0003:000035a8       _glad_glVertexAttribI1iv   004695a8     glad.obj
 0003:000035ac       _glad_glBufferSubData      004695ac     glad.obj
 0003:000035b0       _glad_glTexCoordP3ui       004695b0     glad.obj
 0003:000035b4       _glad_glVertexAttribI2iv   004695b4     glad.obj
 0003:000035b8       _glad_glTexCoordP3uiv      004695b8     glad.obj
 0003:000035bc       _glad_glVertexAttribI3iv   004695bc     glad.obj
 0003:000035c0       _glad_glGetBufferSubData   004695c0     glad.obj
 0003:000035c4       _glad_glTexCoordP4ui       004695c4     glad.obj
 0003:000035c8       _glad_glVertexAttribI4iv   004695c8     glad.obj
 0003:000035cc       _glad_glMapBuffer          004695cc     glad.obj
 0003:000035d0       _glad_glTexCoordP4uiv      004695d0     glad.obj
 0003:000035d4       _glad_glVertexAttribI1uiv  004695d4     glad.obj
 0003:000035d8       _glad_glUnmapBuffer        004695d8     glad.obj
 0003:000035dc       _glad_glVertexAttribI2uiv  004695dc     glad.obj
 0003:000035e0       _glad_glMultiTexCoordP1ui  004695e0     glad.obj
 0003:000035e4       _glad_glGetBufferParameteriv 004695e4     glad.obj
 0003:000035e8       _glad_glVertexAttribI3uiv  004695e8     glad.obj
 0003:000035ec       _glad_glMultiTexCoordP1uiv 004695ec     glad.obj
 0003:000035f0       _glad_glGetBufferPointerv  004695f0     glad.obj
 0003:000035f4       _GLAD_GL_VERSION_2_0       004695f4     glad.obj
 0003:000035f8       _glad_glVertexAttribI4uiv  004695f8     glad.obj
 0003:000035fc       _glad_glMultiTexCoordP2ui  004695fc     glad.obj
 0003:00003600       _glad_glBlendEquationSeparate 00469600     glad.obj
 0003:00003604       _glad_glVertexAttribI4bv   00469604     glad.obj
 0003:00003608       _GLVersion                 00469608     glad.obj
 0003:00003610       _glad_glDrawBuffers        00469610     glad.obj
 0003:00003614       _glad_glVertexAttribI4sv   00469614     glad.obj
 0003:00003618       _glad_glMultiTexCoordP2uiv 00469618     glad.obj
 0003:0000361c       _glad_glVertexAttribI4ubv  0046961c     glad.obj
 0003:00003620       _glad_glStencilOpSeparate  00469620     glad.obj
 0003:00003624       _glad_glMultiTexCoordP3ui  00469624     glad.obj
 0003:00003628       _glad_glVertexAttribI4usv  00469628     glad.obj
 0003:0000362c       _glad_glMultiTexCoordP3uiv 0046962c     glad.obj
 0003:00003630       _glad_glStencilFuncSeparate 00469630     glad.obj
 0003:00003634       _glad_glGetUniformuiv      00469634     glad.obj
 0003:00003638       _glad_glMultiTexCoordP4ui  00469638     glad.obj
 0003:0000363c       _glad_glStencilMaskSeparate 0046963c     glad.obj
 0003:00003640       _glad_glBindFragDataLocation 00469640     glad.obj
 0003:00003644       _glad_glAttachShader       00469644     glad.obj
 0003:00003648       _glad_glMultiTexCoordP4uiv 00469648     glad.obj
 0003:0000364c       _glad_glGetFragDataLocation 0046964c     glad.obj
 0003:00003650       _glad_glBindAttribLocation 00469650     glad.obj
 0003:00003654       _glad_glNormalP3ui         00469654     glad.obj
 0003:00003658       _glad_glUniform1ui         00469658     glad.obj
 0003:0000365c       _glad_glCompileShader      0046965c     glad.obj
 0003:00003660       _glad_glNormalP3uiv        00469660     glad.obj
 0003:00003664       _glad_glCreateProgram      00469664     glad.obj
 0003:00003668       _glad_glUniform2ui         00469668     glad.obj
 0003:0000366c       _glad_glCreateShader       0046966c     glad.obj
 0003:00003670       _glad_glColorP3ui          00469670     glad.obj
 0003:00003674       _glad_glDeleteProgram      00469674     glad.obj
 0003:00003678       _glad_glColorP3uiv         00469678     glad.obj
 0003:0000367c       _glad_glDeleteShader       0046967c     glad.obj
 0003:00003680       _glad_glUniform3ui         00469680     glad.obj
 0003:00003684       _glad_glColorP4ui          00469684     glad.obj
 0003:00003688       _glad_glDetachShader       00469688     glad.obj
 0003:0000368c       _glad_glDisableVertexAttribArray 0046968c     glad.obj
 0003:00003690       _glad_glColorP4uiv         00469690     glad.obj
 0003:00003694       _glad_glUniform4ui         00469694     glad.obj
 0003:00003698       _glad_glEnableVertexAttribArray 00469698     glad.obj
 0003:0000369c       _glad_glSecondaryColorP3ui 0046969c     glad.obj
 0003:000036a0       _glad_glUniform1uiv        004696a0     glad.obj
 0003:000036a4       _glad_glSecondaryColorP3uiv 004696a4     glad.obj
 0003:000036a8       _glad_glUniform2uiv        004696a8     glad.obj
 0003:000036ac       _glad_glGetActiveAttrib    004696ac     glad.obj
 0003:000036bc       _glad_glUniform3uiv        004696bc     glad.obj
 0003:000036c0       _glad_glUniform4uiv        004696c0     glad.obj
 0003:000036c4       _glad_glGetActiveUniform   004696c4     glad.obj
 0003:000036c8       _glad_glTexParameterIiv    004696c8     glad.obj
 0003:000036cc       _glad_glGetAttachedShaders 004696cc     glad.obj
 0003:000036d0       _glad_glTexParameterIuiv   004696d0     glad.obj
 0003:000036d4       _GLAD_GL_VERSION_1_0       004696d4     glad.obj
 0003:000036d8       _glad_glGetAttribLocation  004696d8     glad.obj
 0003:000036dc       _glad_glCullFace           004696dc     glad.obj
 0003:000036e0       _glad_glGetTexParameterIiv 004696e0     glad.obj
 0003:000036e4       _glad_glFrontFace          004696e4     glad.obj
 0003:000036e8       _glad_glGetProgramiv       004696e8     glad.obj
 0003:000036ec       _glad_glGetTexParameterIuiv 004696ec     glad.obj
 0003:000036f0       _glad_glHint               004696f0     glad.obj
 0003:000036f4       _glad_glLineWidth          004696f4     glad.obj
 0003:000036f8       _glad_glGetProgramInfoLog  004696f8     glad.obj
 0003:000036fc       _glad_glClearBufferiv      004696fc     glad.obj
 0003:00003700       _glad_glPointSize          00469700     glad.obj
 0003:00003704       _glad_glGetShaderiv        00469704     glad.obj
 0003:00003708       _glad_glPolygonMode        00469708     glad.obj
 0003:0000370c       _glad_glClearBufferuiv     0046970c     glad.obj
 0003:00003710       _glad_glGetShaderInfoLog   00469710     glad.obj
 0003:00003714       _glad_glScissor            00469714     glad.obj
 0003:00003718       _glad_glClearBufferfv      00469718     glad.obj
 0003:0000371c       _glad_glGetShaderSource    0046971c     glad.obj
 0003:00003720       _glad_glTexParameterf      00469720     glad.obj
 0003:00003724       _glad_glClearBufferfi      00469724     glad.obj
 0003:00003728       _glad_glGetUniformLocation 00469728     glad.obj
 0003:0000372c       _glad_glGetStringi         0046972c     glad.obj
 0003:00003730       _glad_glTexParameterfv     00469730     glad.obj
 0003:00003734       _glad_glIsRenderbuffer     00469734     glad.obj
 0003:00003738       _glad_glGetUniformfv       00469738     glad.obj
 0003:0000373c       _glad_glTexParameteri      0046973c     glad.obj
 0003:00003740       _glad_glBindRenderbuffer   00469740     glad.obj
 0003:00003744       _glad_glGetUniformiv       00469744     glad.obj
 0003:00003748       _glad_glDeleteRenderbuffers 00469748     glad.obj
 0003:0000374c       _glad_glTexParameteriv     0046974c     glad.obj
 0003:00003750       _glad_glGenRenderbuffers   00469750     glad.obj
 0003:00003754       _glad_glGetVertexAttribdv  00469754     glad.obj
 0003:00003758       _glad_glGetVertexAttribfv  00469758     glad.obj
 0003:0000375c       _glad_glRenderbufferStorage 0046975c     glad.obj
 0003:00003760       _glad_glTexImage1D         00469760     glad.obj
 0003:00003764       _glad_glGetVertexAttribiv  00469764     glad.obj
 0003:00003768       _glad_glGetRenderbufferParameteriv 00469768     glad.obj
 0003:0000376c       _glad_glIsFramebuffer      0046976c     glad.obj
 0003:00003770       _glad_glGetVertexAttribPointerv 00469770     glad.obj
 0003:00003774       _glad_glIsProgram          00469774     glad.obj
 0003:00003778       _glad_glBindFramebuffer    00469778     glad.obj
 0003:0000377c       _glad_glTexImage2D         0046977c     glad.obj
 0003:00003780       _glad_glIsShader           00469780     glad.obj
 0003:00003784       _glad_glDeleteFramebuffers 00469784     glad.obj
 0003:00003788       _glad_glLinkProgram        00469788     glad.obj
 0003:0000378c       _glad_glDrawBuffer         0046978c     glad.obj
 0003:00003790       _glad_glGenFramebuffers    00469790     glad.obj
 0003:00003794       _glad_glClear              00469794     glad.obj
 0003:00003798       _glad_glCheckFramebufferStatus 00469798     glad.obj
 0003:0000379c       _glad_glShaderSource       0046979c     glad.obj
 0003:000037a0       _glad_glUseProgram         004697a0     glad.obj
 0003:000037a4       _glad_glClearColor         004697a4     glad.obj
 0003:000037a8       _glad_glClearStencil       004697a8     glad.obj
 0003:000037ac       _glad_glUniform1f          004697ac     glad.obj
 0003:000037b0       _glad_glFramebufferTexture1D 004697b0     glad.obj
 0003:000037b4       _glad_glClearDepth         004697b4     glad.obj
 0003:000037b8       _glad_glStencilMask        004697b8     glad.obj
 0003:000037bc       _glad_glUniform2f          004697bc     glad.obj
 0003:000037c0       _glad_glFramebufferTexture2D 004697c0     glad.obj
 0003:00003910       __glfw                     00469910     glfw3:init.obj
 0003:00005d3c       ___scrt_current_native_startup_state 0046bd3c     MSVCRT:utility.obj
 0003:00005d40       ___scrt_native_startup_lock 0046bd40     MSVCRT:utility.obj
 0003:00005d64       ___isa_available           0046bd64     MSVCRT:_cpu_disp_.obj
 0003:00005d68       ___favor                   0046bd68     MSVCRT:_cpu_disp_.obj
 0003:00005d70       ___scrt_debugger_hook_flag 0046bd70     MSVCRT:utility_desktop.obj
 0003:00006138       ?__type_info_root_node@@3U__type_info_node@@A 0046c138     MSVCRT:tncleanup.obj
 0003:00006148       ?_OptionsStorage@?1??__local_stdio_printf_options@@9@4_KA 0046c148     MSVCRT:default_local_stdio_options.obj
 0003:00006158       ?_OptionsStorage@?1??__local_stdio_scanf_options@@9@4_KA 0046c158     MSVCRT:default_local_stdio_options.obj
 0003:00006168       ?_OptionsStorage@?1??__local_stdio_scanf_options@@9@9 0046c168     <common>
 0003:00006180       ?_OptionsStorage@?1??__local_stdio_printf_options@@9@9 0046c180     <common>
 0003:00006194       ___dyn_tls_dtor_callback   0046c194     <common>
 0003:000061a0       ___dyn_tls_init_callback   0046c1a0     <common>
 0004:00000000       __imp__CreateDCW@16        0046d000     gdi32:GDI32.dll
 0004:00000004       __imp__GetDeviceCaps@8     0046d004     gdi32:GDI32.dll
 0004:00000008       __imp__GetDeviceGammaRamp@8 0046d008     gdi32:GDI32.dll
 0004:0000000c       __imp__SetDeviceGammaRamp@8 0046d00c     gdi32:GDI32.dll
 0004:00000010       __imp__CreateBitmap@20     0046d010     gdi32:GDI32.dll
 0004:00000014       __imp__CreateRectRgn@16    0046d014     gdi32:GDI32.dll
 0004:00000018       __imp__DeleteObject@4      0046d018     gdi32:GDI32.dll
 0004:0000001c       __imp__CreateDIBSection@24 0046d01c     gdi32:GDI32.dll
 0004:00000020       __imp__ChoosePixelFormat@8 0046d020     gdi32:GDI32.dll
 0004:00000024       __imp__DescribePixelFormat@16 0046d024     gdi32:GDI32.dll
 0004:00000028       __imp__SetPixelFormat@12   0046d028     gdi32:GDI32.dll
 0004:0000002c       __imp__SwapBuffers@4       0046d02c     gdi32:GDI32.dll
 0004:00000030       __imp__DeleteDC@4          0046d030     gdi32:GDI32.dll
 0004:00000034       \177GDI32_NULL_THUNK_DATA  0046d034     gdi32:GDI32.dll
 0004:00000068       __imp__GlobalLock@4        0046d068     kernel32:KERNEL32.dll
 0004:0000006c       __imp__GlobalUnlock@4      0046d06c     kernel32:KERNEL32.dll
 0004:00000070       __imp__GlobalAlloc@8       0046d070     kernel32:KERNEL32.dll
 0004:00000074       __imp__InitializeSListHead@4 0046d074     kernel32:KERNEL32.dll
 0004:00000078       __imp__TlsSetValue@8       0046d078     kernel32:KERNEL32.dll
 0004:0000007c       __imp__TlsGetValue@4       0046d07c     kernel32:KERNEL32.dll
 0004:00000080       __imp__TlsAlloc@0          0046d080     kernel32:KERNEL32.dll
 0004:00000084       __imp__DeleteCriticalSection@4 0046d084     kernel32:KERNEL32.dll
 0004:00000088       __imp__LeaveCriticalSection@4 0046d088     kernel32:KERNEL32.dll
 0004:0000008c       __imp__EnterCriticalSection@4 0046d08c     kernel32:KERNEL32.dll
 0004:00000090       __imp__InitializeCriticalSection@4 0046d090     kernel32:KERNEL32.dll
 0004:00000094       __imp__GlobalFree@4        0046d094     kernel32:KERNEL32.dll
 0004:00000098       __imp__QueryPerformanceCounter@4 0046d098     kernel32:KERNEL32.dll
 0004:0000009c       __imp__WideCharToMultiByte@32 0046d09c     kernel32:KERNEL32.dll
 0004:000000a0       __imp__MultiByteToWideChar@24 0046d0a0     kernel32:KERNEL32.dll
 0004:000000a4       __imp__FormatMessageW@28   0046d0a4     kernel32:KERNEL32.dll
 0004:000000a8       __imp__LoadLibraryA@4      0046d0a8     kernel32:KERNEL32.dll
 0004:000000ac       __imp__GetModuleHandleW@4  0046d0ac     kernel32:KERNEL32.dll
 0004:000000b0       __imp__GetLastError@0      0046d0b0     kernel32:KERNEL32.dll
 0004:000000b4       __imp__VerSetConditionMask@16 0046d0b4     kernel32:KERNEL32.dll
 0004:000000b8       __imp__LoadLibraryW@4      0046d0b8     kernel32:KERNEL32.dll
 0004:000000bc       __imp__GetProcAddress@8    0046d0bc     kernel32:KERNEL32.dll
 0004:000000c0       __imp__FreeLibrary@4       0046d0c0     kernel32:KERNEL32.dll
 0004:000000c4       __imp__SetThreadExecutionState@4 0046d0c4     kernel32:KERNEL32.dll
 0004:000000c8       __imp__IsProcessorFeaturePresent@4 0046d0c8     kernel32:KERNEL32.dll
 0004:000000cc       __imp__IsDebuggerPresent@0 0046d0cc     kernel32:KERNEL32.dll
 0004:000000d0       __imp__UnhandledExceptionFilter@4 0046d0d0     kernel32:KERNEL32.dll
 0004:000000d4       __imp__SetUnhandledExceptionFilter@4 0046d0d4     kernel32:KERNEL32.dll
 0004:000000d8       __imp__GetStartupInfoW@4   0046d0d8     kernel32:KERNEL32.dll
 0004:000000dc       __imp__GetCurrentProcess@0 0046d0dc     kernel32:KERNEL32.dll
 0004:000000e0       __imp__TerminateProcess@8  0046d0e0     kernel32:KERNEL32.dll
 0004:000000e4       __imp__GetCurrentProcessId@0 0046d0e4     kernel32:KERNEL32.dll
 0004:000000e8       __imp__GetCurrentThreadId@0 0046d0e8     kernel32:KERNEL32.dll
 0004:000000ec       __imp__GetSystemTimeAsFileTime@4 0046d0ec     kernel32:KERNEL32.dll
 0004:000000f0       __imp__QueryPerformanceFrequency@4 0046d0f0     kernel32:KERNEL32.dll
 0004:000000f4       __imp__TlsFree@4           0046d0f4     kernel32:KERNEL32.dll
 0004:000000f8       \177KERNEL32_NULL_THUNK_DATA 0046d0f8     kernel32:KERNEL32.dll
 0004:00000140       __imp_??6?$basic_ostream@DU?$char_traits@D@std@@@std@@QAEAAV01@M@Z 0046d140     msvcprt:MSVCP140.dll
 0004:00000144       __imp_?_Xbad_alloc@std@@YAXXZ 0046d144     msvcprt:MSVCP140.dll
 0004:00000148       __imp_?_Xlength_error@std@@YAXPBD@Z 0046d148     msvcprt:MSVCP140.dll
 0004:0000014c       __imp_?_Xout_of_range@std@@YAXPBD@Z 0046d14c     msvcprt:MSVCP140.dll
 0004:00000150       __imp_?good@ios_base@std@@QBE_NXZ 0046d150     msvcprt:MSVCP140.dll
 0004:00000154       __imp_?cout@std@@3V?$basic_ostream@DU?$char_traits@D@std@@@1@A 0046d154     msvcprt:MSVCP140.dll
 0004:00000158       __imp_?_Random_device@std@@YAIXZ 0046d158     msvcprt:MSVCP140.dll
 0004:0000015c       __imp_?flush@?$basic_ostream@DU?$char_traits@D@std@@@std@@QAEAAV12@XZ 0046d15c     msvcprt:MSVCP140.dll
 0004:00000160       __imp_?put@?$basic_ostream@DU?$char_traits@D@std@@@std@@QAEAAV12@D@Z 0046d160     msvcprt:MSVCP140.dll
 0004:00000164       __imp_?flags@ios_base@std@@QBEHXZ 0046d164     msvcprt:MSVCP140.dll
 0004:00000168       __imp_??6?$basic_ostream@DU?$char_traits@D@std@@@std@@QAEAAV01@H@Z 0046d168     msvcprt:MSVCP140.dll
 0004:0000016c       __imp_??6?$basic_ostream@DU?$char_traits@D@std@@@std@@QAEAAV01@P6AAAV01@AAV01@@Z@Z 0046d16c     msvcprt:MSVCP140.dll
 0004:00000170       __imp_?_Osfx@?$basic_ostream@DU?$char_traits@D@std@@@std@@QAEXXZ 0046d170     msvcprt:MSVCP140.dll
 0004:00000174       __imp_?widen@?$basic_ios@DU?$char_traits@D@std@@@std@@QBEDD@Z 0046d174     msvcprt:MSVCP140.dll
 0004:00000178       __imp_?fill@?$basic_ios@DU?$char_traits@D@std@@@std@@QBEDXZ 0046d178     msvcprt:MSVCP140.dll
 0004:0000017c       __imp_?rdbuf@?$basic_ios@DU?$char_traits@D@std@@@std@@QBEPAV?$basic_streambuf@DU?$char_traits@D@std@@@2@XZ 0046d17c     msvcprt:MSVCP140.dll
 0004:00000180       __imp_?tie@?$basic_ios@DU?$char_traits@D@std@@@std@@QBEPAV?$basic_ostream@DU?$char_traits@D@std@@@2@XZ 0046d180     msvcprt:MSVCP140.dll
 0004:00000184       __imp_?setstate@?$basic_ios@DU?$char_traits@D@std@@@std@@QAEXH_N@Z 0046d184     msvcprt:MSVCP140.dll
 0004:00000188       __imp_?sputn@?$basic_streambuf@DU?$char_traits@D@std@@@std@@QAE_JPBD_J@Z 0046d188     msvcprt:MSVCP140.dll
 0004:0000018c       __imp_?sputc@?$basic_streambuf@DU?$char_traits@D@std@@@std@@QAEHD@Z 0046d18c     msvcprt:MSVCP140.dll
 0004:00000190       __imp_?width@ios_base@std@@QAE_J_J@Z 0046d190     msvcprt:MSVCP140.dll
 0004:00000194       __imp_?width@ios_base@std@@QBE_JXZ 0046d194     msvcprt:MSVCP140.dll
 0004:00000198       __imp_?precision@ios_base@std@@QAE_J_J@Z 0046d198     msvcprt:MSVCP140.dll
 0004:0000019c       __imp_?uncaught_exception@std@@YA_NXZ 0046d19c     msvcprt:MSVCP140.dll
 0004:000001a0       \177MSVCP140_NULL_THUNK_DATA 0046d1a0     msvcprt:MSVCP140.dll
 0004:000001dc       __imp__DragAcceptFiles@8   0046d1dc     shell32:SHELL32.dll
 0004:000001e0       __imp__DragFinish@4        0046d1e0     shell32:SHELL32.dll
 0004:000001e4       __imp__DragQueryPoint@8    0046d1e4     shell32:SHELL32.dll
 0004:000001e8       __imp__DragQueryFileW@16   0046d1e8     shell32:SHELL32.dll
 0004:000001ec       \177SHELL32_NULL_THUNK_DATA 0046d1ec     shell32:SHELL32.dll
 0004:00000218       __imp__MonitorFromWindow@8 0046d218     user32:USER32.dll
 0004:0000021c       __imp__GetRawInputData@20  0046d21c     user32:USER32.dll
 0004:00000220       __imp__RegisterRawInputDevices@12 0046d220     user32:USER32.dll
 0004:00000224       __imp__GetRawInputDeviceInfoA@16 0046d224     user32:USER32.dll
 0004:00000228       __imp__GetRawInputDeviceList@12 0046d228     user32:USER32.dll
 0004:0000022c       __imp__GetKeyState@4       0046d22c     user32:USER32.dll
 0004:00000230       __imp__GetActiveWindow@0   0046d230     user32:USER32.dll
 0004:00000234       __imp__SetFocus@4          0046d234     user32:USER32.dll
 0004:00000238       __imp__EmptyClipboard@0    0046d238     user32:USER32.dll
 0004:0000023c       __imp__GetClipboardData@4  0046d23c     user32:USER32.dll
 0004:00000240       __imp__SetClipboardData@8  0046d240     user32:USER32.dll
 0004:00000244       __imp__CloseClipboard@0    0046d244     user32:USER32.dll
 0004:00000248       __imp__OpenClipboard@4     0046d248     user32:USER32.dll
 0004:0000024c       __imp__IsZoomed@4          0046d24c     user32:USER32.dll
 0004:00000250       __imp__BringWindowToTop@4  0046d250     user32:USER32.dll
 0004:00000254       __imp__IsIconic@4          0046d254     user32:USER32.dll
 0004:00000258       __imp__IsWindowVisible@4   0046d258     user32:USER32.dll
 0004:0000025c       __imp__SetWindowPlacement@8 0046d25c     user32:USER32.dll
 0004:00000260       __imp__GetWindowPlacement@8 0046d260     user32:USER32.dll
 0004:00000264       __imp__SetWindowPos@28     0046d264     user32:USER32.dll
 0004:00000268       __imp__MoveWindow@24       0046d268     user32:USER32.dll
 0004:0000026c       __imp__FlashWindow@8       0046d26c     user32:USER32.dll
 0004:00000270       __imp__SetLayeredWindowAttributes@16 0046d270     user32:USER32.dll
 0004:00000274       __imp__GetLayeredWindowAttributes@16 0046d274     user32:USER32.dll
 0004:00000278       __imp__RegisterClassExW@4  0046d278     user32:USER32.dll
 0004:0000027c       __imp__UnregisterClassW@8  0046d27c     user32:USER32.dll
 0004:00000280       __imp__DefWindowProcW@16   0046d280     user32:USER32.dll
 0004:00000284       __imp__WaitMessage@0       0046d284     user32:USER32.dll
 0004:00000288       __imp__PostMessageW@16     0046d288     user32:USER32.dll
 0004:0000028c       __imp__SendMessageW@16     0046d28c     user32:USER32.dll
 0004:00000290       __imp__GetMessageTime@0    0046d290     user32:USER32.dll
 0004:00000294       __imp__TrackMouseEvent@4   0046d294     user32:USER32.dll
 0004:00000298       __imp__EnumDisplayMonitors@16 0046d298     user32:USER32.dll
 0004:0000029c       __imp__GetMonitorInfoW@8   0046d29c     user32:USER32.dll
 0004:000002a0       __imp__EnumDisplayDevicesW@16 0046d2a0     user32:USER32.dll
 0004:000002a4       __imp__EnumDisplaySettingsExW@16 0046d2a4     user32:USER32.dll
 0004:000002a8       __imp__EnumDisplaySettingsW@12 0046d2a8     user32:USER32.dll
 0004:000002ac       __imp__ChangeDisplaySettingsExW@20 0046d2ac     user32:USER32.dll
 0004:000002b0       __imp__ReleaseDC@8         0046d2b0     user32:USER32.dll
 0004:000002b4       __imp__GetDC@4             0046d2b4     user32:USER32.dll
 0004:000002b8       __imp__SystemParametersInfoW@16 0046d2b8     user32:USER32.dll
 0004:000002bc       __imp__MapVirtualKeyW@8    0046d2bc     user32:USER32.dll
 0004:000002c0       __imp__ToUnicode@24        0046d2c0     user32:USER32.dll
 0004:000002c4       __imp__ShowWindow@8        0046d2c4     user32:USER32.dll
 0004:000002c8       __imp__DestroyWindow@4     0046d2c8     user32:USER32.dll
 0004:000002cc       __imp__CreateIconIndirect@4 0046d2cc     user32:USER32.dll
 0004:000002d0       __imp__LoadImageW@24       0046d2d0     user32:USER32.dll
 0004:000002d4       __imp__DestroyIcon@4       0046d2d4     user32:USER32.dll
 0004:000002d8       __imp__LoadCursorW@8       0046d2d8     user32:USER32.dll
 0004:000002dc       __imp__GetClassLongW@8     0046d2dc     user32:USER32.dll
 0004:000002e0       __imp__SetWindowLongW@12   0046d2e0     user32:USER32.dll
 0004:000002e4       __imp__GetWindowLongW@8    0046d2e4     user32:USER32.dll
 0004:000002e8       __imp__PtInRect@12         0046d2e8     user32:USER32.dll
 0004:000002ec       __imp__SetRect@20          0046d2ec     user32:USER32.dll
 0004:000002f0       __imp__ClipCursor@4        0046d2f0     user32:USER32.dll
 0004:000002f4       __imp__WindowFromPoint@8   0046d2f4     user32:USER32.dll
 0004:000002f8       __imp__ScreenToClient@8    0046d2f8     user32:USER32.dll
 0004:000002fc       __imp__ClientToScreen@8    0046d2fc     user32:USER32.dll
 0004:00000300       __imp__GetCursorPos@4      0046d300     user32:USER32.dll
 0004:00000304       __imp__SetCursor@4         0046d304     user32:USER32.dll
 0004:00000308       __imp__SetCursorPos@8      0046d308     user32:USER32.dll
 0004:0000030c       __imp__AdjustWindowRectEx@16 0046d30c     user32:USER32.dll
 0004:00000310       __imp__GetWindowRect@8     0046d310     user32:USER32.dll
 0004:00000314       __imp__GetClientRect@8     0046d314     user32:USER32.dll
 0004:00000318       __imp__SetWindowTextW@8    0046d318     user32:USER32.dll
 0004:0000031c       __imp__RemovePropW@8       0046d31c     user32:USER32.dll
 0004:00000320       __imp__GetPropW@8          0046d320     user32:USER32.dll
 0004:00000324       __imp__SetPropW@12         0046d324     user32:USER32.dll
 0004:00000328       __imp__RedrawWindow@16     0046d328     user32:USER32.dll
 0004:0000032c       __imp__SetForegroundWindow@4 0046d32c     user32:USER32.dll
 0004:00000330       __imp__SetCapture@4        0046d330     user32:USER32.dll
 0004:00000334       __imp__ReleaseCapture@0    0046d334     user32:USER32.dll
 0004:00000338       __imp__MsgWaitForMultipleObjects@20 0046d338     user32:USER32.dll
 0004:0000033c       __imp__GetSystemMetrics@4  0046d33c     user32:USER32.dll
 0004:00000340       __imp__TranslateMessage@4  0046d340     user32:USER32.dll
 0004:00000344       __imp__DispatchMessageW@4  0046d344     user32:USER32.dll
 0004:00000348       __imp__PeekMessageW@20     0046d348     user32:USER32.dll
 0004:0000034c       __imp__RegisterDeviceNotificationW@12 0046d34c     user32:USER32.dll
 0004:00000350       __imp__UnregisterDeviceNotification@4 0046d350     user32:USER32.dll
 0004:00000354       __imp__GetAsyncKeyState@4  0046d354     user32:USER32.dll
 0004:00000358       __imp__CreateWindowExW@48  0046d358     user32:USER32.dll
 0004:0000035c       \177USER32_NULL_THUNK_DATA 0046d35c     user32:USER32.dll
 0004:000003c8       __imp____std_type_info_destroy_list 0046d3c8     vcruntime:VCRUNTIME140.dll
 0004:000003cc       __imp__strstr              0046d3cc     vcruntime:VCRUNTIME140.dll
 0004:000003d0       __imp__memset              0046d3d0     vcruntime:VCRUNTIME140.dll
 0004:000003d4       __imp___except_handler4_common 0046d3d4     vcruntime:VCRUNTIME140.dll
 0004:000003d8       __imp____std_exception_destroy 0046d3d8     vcruntime:VCRUNTIME140.dll
 0004:000003dc       __imp__memcpy              0046d3dc     vcruntime:VCRUNTIME140.dll
 0004:000003e0       __imp__memmove             0046d3e0     vcruntime:VCRUNTIME140.dll
 0004:000003e4       __imp___CxxThrowException@8 0046d3e4     vcruntime:VCRUNTIME140.dll
 0004:000003e8       __imp____CxxFrameHandler3  0046d3e8     vcruntime:VCRUNTIME140.dll
 0004:000003ec       __imp____std_exception_copy 0046d3ec     vcruntime:VCRUNTIME140.dll
 0004:000003f0       \177VCRUNTIME140_NULL_THUNK_DATA 0046d3f0     vcruntime:VCRUNTIME140.dll
 0004:00000424       __imp__strtoul             0046d424     ucrt:api-ms-win-crt-convert-l1-1-0.dll
 0004:00000428       __imp__strtol              0046d428     ucrt:api-ms-win-crt-convert-l1-1-0.dll
 0004:0000042c       \177api-ms-win-crt-convert-l1-1-0_NULL_THUNK_DATA 0046d42c     ucrt:api-ms-win-crt-convert-l1-1-0.dll
 0004:00000458       __imp___set_new_mode       0046d458     ucrt:api-ms-win-crt-heap-l1-1-0.dll
 0004:0000045c       __imp___callnewh           0046d45c     ucrt:api-ms-win-crt-heap-l1-1-0.dll
 0004:00000460       __imp__free                0046d460     ucrt:api-ms-win-crt-heap-l1-1-0.dll
 0004:00000464       __imp__calloc              0046d464     ucrt:api-ms-win-crt-heap-l1-1-0.dll
 0004:00000468       __imp__malloc              0046d468     ucrt:api-ms-win-crt-heap-l1-1-0.dll
 0004:0000046c       __imp__realloc             0046d46c     ucrt:api-ms-win-crt-heap-l1-1-0.dll
 0004:00000470       \177api-ms-win-crt-heap-l1-1-0_NULL_THUNK_DATA 0046d470     ucrt:api-ms-win-crt-heap-l1-1-0.dll
 0004:000004a0       __imp___configthreadlocale 0046d4a0     ucrt:api-ms-win-crt-locale-l1-1-0.dll
 0004:000004a4       \177api-ms-win-crt-locale-l1-1-0_NULL_THUNK_DATA 0046d4a4     ucrt:api-ms-win-crt-locale-l1-1-0.dll
 0004:000004d0       __imp___libm_sse2_pow_precise 0046d4d0     ucrt:api-ms-win-crt-math-l1-1-0.dll
 0004:000004d4       __imp___libm_sse2_sin_precise 0046d4d4     ucrt:api-ms-win-crt-math-l1-1-0.dll
 0004:000004d8       __imp___libm_sse2_sqrt_precise 0046d4d8     ucrt:api-ms-win-crt-math-l1-1-0.dll
 0004:000004dc       __imp__log2f               0046d4dc     ucrt:api-ms-win-crt-math-l1-1-0.dll
 0004:000004e0       __imp___libm_sse2_log_precise 0046d4e0     ucrt:api-ms-win-crt-math-l1-1-0.dll
 0004:000004e4       __imp__ldexp               0046d4e4     ucrt:api-ms-win-crt-math-l1-1-0.dll
 0004:000004e8       __imp___libm_sse2_cos_precise 0046d4e8     ucrt:api-ms-win-crt-math-l1-1-0.dll
 0004:000004ec       __imp__ceil                0046d4ec     ucrt:api-ms-win-crt-math-l1-1-0.dll
 0004:000004f0       __imp____setusermatherr    0046d4f0     ucrt:api-ms-win-crt-math-l1-1-0.dll
 0004:000004f4       __imp___except1            0046d4f4     ucrt:api-ms-win-crt-math-l1-1-0.dll
 0004:000004f8       \177api-ms-win-crt-math-l1-1-0_NULL_THUNK_DATA 0046d4f8     ucrt:api-ms-win-crt-math-l1-1-0.dll
 0004:0000052c       __imp___initialize_narrow_environment 0046d52c     ucrt:api-ms-win-crt-runtime-l1-1-0.dll
 0004:00000530       __imp___register_onexit_function 0046d530     ucrt:api-ms-win-crt-runtime-l1-1-0.dll
 0004:00000534       __imp___execute_onexit_table 0046d534     ucrt:api-ms-win-crt-runtime-l1-1-0.dll
 0004:00000538       __imp___crt_atexit         0046d538     ucrt:api-ms-win-crt-runtime-l1-1-0.dll
 0004:0000053c       __imp___crt_at_quick_exit  0046d53c     ucrt:api-ms-win-crt-runtime-l1-1-0.dll
 0004:00000540       __imp___cexit              0046d540     ucrt:api-ms-win-crt-runtime-l1-1-0.dll
 0004:00000544       __imp___seh_filter_exe     0046d544     ucrt:api-ms-win-crt-runtime-l1-1-0.dll
 0004:00000548       __imp___set_app_type       0046d548     ucrt:api-ms-win-crt-runtime-l1-1-0.dll
 0004:0000054c       __imp___configure_narrow_argv 0046d54c     ucrt:api-ms-win-crt-runtime-l1-1-0.dll
 0004:00000550       __imp___get_initial_narrow_environment 0046d550     ucrt:api-ms-win-crt-runtime-l1-1-0.dll
 0004:00000554       __imp___initterm           0046d554     ucrt:api-ms-win-crt-runtime-l1-1-0.dll
 0004:00000558       __imp___initterm_e         0046d558     ucrt:api-ms-win-crt-runtime-l1-1-0.dll
 0004:0000055c       __imp__exit                0046d55c     ucrt:api-ms-win-crt-runtime-l1-1-0.dll
 0004:00000560       __imp___exit               0046d560     ucrt:api-ms-win-crt-runtime-l1-1-0.dll
 0004:00000564       __imp____p___argc          0046d564     ucrt:api-ms-win-crt-runtime-l1-1-0.dll
 0004:00000568       __imp____p___argv          0046d568     ucrt:api-ms-win-crt-runtime-l1-1-0.dll
 0004:0000056c       __imp___c_exit             0046d56c     ucrt:api-ms-win-crt-runtime-l1-1-0.dll
 0004:00000570       __imp___register_thread_local_exe_atexit_callback 0046d570     ucrt:api-ms-win-crt-runtime-l1-1-0.dll
 0004:00000574       __imp___seh_filter_dll     0046d574     ucrt:api-ms-win-crt-runtime-l1-1-0.dll
 0004:00000578       __imp___initialize_onexit_table 0046d578     ucrt:api-ms-win-crt-runtime-l1-1-0.dll
 0004:0000057c       __imp___controlfp_s        0046d57c     ucrt:api-ms-win-crt-runtime-l1-1-0.dll
 0004:00000580       __imp___wassert            0046d580     ucrt:api-ms-win-crt-runtime-l1-1-0.dll
 0004:00000584       __imp__terminate           0046d584     ucrt:api-ms-win-crt-runtime-l1-1-0.dll
 0004:00000588       __imp___invalid_parameter_noinfo_noreturn 0046d588     ucrt:api-ms-win-crt-runtime-l1-1-0.dll
 0004:0000058c       \177api-ms-win-crt-runtime-l1-1-0_NULL_THUNK_DATA 0046d58c     ucrt:api-ms-win-crt-runtime-l1-1-0.dll
 0004:000005c8       __imp___set_fmode          0046d5c8     ucrt:api-ms-win-crt-stdio-l1-1-0.dll
 0004:000005cc       __imp__fopen_s             0046d5cc     ucrt:api-ms-win-crt-stdio-l1-1-0.dll
 0004:000005d0       __imp__fclose              0046d5d0     ucrt:api-ms-win-crt-stdio-l1-1-0.dll
 0004:000005d4       __imp__feof                0046d5d4     ucrt:api-ms-win-crt-stdio-l1-1-0.dll
 0004:000005d8       __imp__fread               0046d5d8     ucrt:api-ms-win-crt-stdio-l1-1-0.dll
 0004:000005dc       __imp__fseek               0046d5dc     ucrt:api-ms-win-crt-stdio-l1-1-0.dll
 0004:000005e0       __imp__ftell               0046d5e0     ucrt:api-ms-win-crt-stdio-l1-1-0.dll
 0004:000005e4       __imp____stdio_common_vsprintf 0046d5e4     ucrt:api-ms-win-crt-stdio-l1-1-0.dll
 0004:000005e8       __imp____p__commode        0046d5e8     ucrt:api-ms-win-crt-stdio-l1-1-0.dll
 0004:000005ec       __imp____stdio_common_vsscanf 0046d5ec     ucrt:api-ms-win-crt-stdio-l1-1-0.dll
 0004:000005f0       \177api-ms-win-crt-stdio-l1-1-0_NULL_THUNK_DATA 0046d5f0     ucrt:api-ms-win-crt-stdio-l1-1-0.dll
 0004:00000624       __imp__strncpy             0046d624     ucrt:api-ms-win-crt-string-l1-1-0.dll
 0004:00000628       __imp__strlen              0046d628     ucrt:api-ms-win-crt-string-l1-1-0.dll
 0004:0000062c       __imp__strcspn             0046d62c     ucrt:api-ms-win-crt-string-l1-1-0.dll
 0004:00000630       __imp__strspn              0046d630     ucrt:api-ms-win-crt-string-l1-1-0.dll
 0004:00000634       __imp__strncmp             0046d634     ucrt:api-ms-win-crt-string-l1-1-0.dll
 0004:00000638       \177api-ms-win-crt-string-l1-1-0_NULL_THUNK_DATA 0046d638     ucrt:api-ms-win-crt-string-l1-1-0.dll
 0004:00000668       __imp__qsort               0046d668     ucrt:api-ms-win-crt-utility-l1-1-0.dll
 0004:0000066c       \177api-ms-win-crt-utility-l1-1-0_NULL_THUNK_DATA 0046d66c     ucrt:api-ms-win-crt-utility-l1-1-0.dll
 0004:00000698       __IMPORT_DESCRIPTOR_SHELL32 0046d698     shell32:SHELL32.dll
 0004:000006ac       __IMPORT_DESCRIPTOR_USER32 0046d6ac     user32:USER32.dll
 0004:000006c0       __IMPORT_DESCRIPTOR_GDI32  0046d6c0     gdi32:GDI32.dll
 0004:000006d4       __IMPORT_DESCRIPTOR_KERNEL32 0046d6d4     kernel32:KERNEL32.dll
 0004:000006e8       __IMPORT_DESCRIPTOR_MSVCP140 0046d6e8     msvcprt:MSVCP140.dll
 0004:000006fc       __IMPORT_DESCRIPTOR_VCRUNTIME140 0046d6fc     vcruntime:VCRUNTIME140.dll
 0004:00000710       __IMPORT_DESCRIPTOR_api-ms-win-crt-runtime-l1-1-0 0046d710     ucrt:api-ms-win-crt-runtime-l1-1-0.dll
 0004:00000724       __IMPORT_DESCRIPTOR_api-ms-win-crt-math-l1-1-0 0046d724     ucrt:api-ms-win-crt-math-l1-1-0.dll
 0004:00000738       __IMPORT_DESCRIPTOR_api-ms-win-crt-heap-l1-1-0 0046d738     ucrt:api-ms-win-crt-heap-l1-1-0.dll
 0004:0000074c       __IMPORT_DESCRIPTOR_api-ms-win-crt-convert-l1-1-0 0046d74c     ucrt:api-ms-win-crt-convert-l1-1-0.dll
 0004:00000760       __IMPORT_DESCRIPTOR_api-ms-win-crt-stdio-l1-1-0 0046d760     ucrt:api-ms-win-crt-stdio-l1-1-0.dll
 0004:00000774       __IMPORT_DESCRIPTOR_api-ms-win-crt-string-l1-1-0 0046d774     ucrt:api-ms-win-crt-string-l1-1-0.dll
 0004:00000788       __IMPORT_DESCRIPTOR_api-ms-win-crt-utility-l1-1-0 0046d788     ucrt:api-ms-win-crt-utility-l1-1-0.dll
 0004:0000079c       __IMPORT_DESCRIPTOR_api-ms-win-crt-locale-l1-1-0 0046d79c     ucrt:api-ms-win-crt-locale-l1-1-0.dll
 0004:000007b0       __NULL_IMPORT_DESCRIPTOR   0046d7b0     shell32:SHELL32.dll
 0006:00000000       ___guard_check_icall_fptr  00471000     MSVCRT:guard_support.obj
